gpasm-0.13.7 beta               objects/newtime.asm11-15-2013  19:15:36         PAGE  1


LOC  OBJECT CODE     LINE SOURCE TEXT
  VALUE
 
               00001 ;--------------------------------------------------------
               00002 ; File Created by SDCC : free open source ANSI-C Compiler
               00003 ; Version 2.9.4 #5595 (Nov 14 2013) (UNIX)
               00004 ; This file was generated Fri Nov 15 19:15:36 2013
               00005 ;--------------------------------------------------------
               00006 ; PIC16 port for the Microchip 16-bit core micros
               00007 ;--------------------------------------------------------
               00008         list    p=18f97j60
               00009 
               00010         radix dec
               00011 
               00012 ;--------------------------------------------------------
               00013 ; public variables in this module
               00014 ;--------------------------------------------------------
               00015         global _heap
               00016         global _time_create
               00017         global _time_set
               00018         global _set_hours
               00019         global _set_minutes
               00020         global _set_seconds
               00021         global _add_second
               00022         global _add_minute
               00023         global _add_hour
               00024         global _time_print
               00025         global _time_equals
               00026 
               00027 ;--------------------------------------------------------
               00028 ; extern variables in this module
               00029 ;--------------------------------------------------------
               00030         extern __gptrput2
               00031         extern __gptrget2
               00032         extern _stdin
               00033         extern _stdout
               00034         extern _sprintf
               00035         extern _malloc
               00036         extern __divsint
               00037         extern __modsint
               00038 ;--------------------------------------------------------
               00039 ;       Equates to used internal registers
               00040 ;--------------------------------------------------------
  00000FD8     00041 STATUS  equ     0xfd8
  00000FE8     00042 WREG    equ     0xfe8
  00000FE9     00043 FSR0L   equ     0xfe9
  00000FE1     00044 FSR1L   equ     0xfe1
  00000FD9     00045 FSR2L   equ     0xfd9
  00000FE5     00046 POSTDEC1        equ     0xfe5
  00000FE4     00047 PREINC1 equ     0xfe4
  00000FDB     00048 PLUSW2  equ     0xfdb
  00000FF3     00049 PRODL   equ     0xff3
  00000FF4     00050 PRODH   equ     0xff4
               00051 
               00052 
               00053 ; Internal registers
               00054 .registers      udata_ovr       0x0000
gpasm-0.13.7 beta               objects/newtime.asm11-15-2013  19:15:36         PAGE  2


LOC  OBJECT CODE     LINE SOURCE TEXT
  VALUE
 
               00055 r0x00   res     1
               00056 r0x01   res     1
               00057 r0x02   res     1
               00058 r0x03   res     1
               00059 r0x04   res     1
               00060 r0x05   res     1
               00061 r0x06   res     1
               00062 r0x07   res     1
               00063 r0x08   res     1
               00064 r0x09   res     1
               00065 r0x0a   res     1
               00066 
               00067 udata_newtime_0 udata
               00068 _heap   res     32
               00069 
               00070 ;--------------------------------------------------------
               00071 ; global & static initialisations
               00072 ;--------------------------------------------------------
               00073 ; I code from now on!
               00074 ; ; Starting pCode block
               00075 S_newtime__time_equals  code
0000 00076 _time_equals:
               00077 ;       .line   63; src/newtime.c       int time_equals(time t1, time t2){
0000 CFD9 FFE5 00078         MOVFF   FSR2L, POSTDEC1
0004 CFE1 FFD9 00079         MOVFF   FSR1L, FSR2L
0008 C000 FFE5 00080         MOVFF   r0x00, POSTDEC1
000C C000 FFE5 00081         MOVFF   r0x01, POSTDEC1
0010 C000 FFE5 00082         MOVFF   r0x02, POSTDEC1
0014 C000 FFE5 00083         MOVFF   r0x03, POSTDEC1
0018 C000 FFE5 00084         MOVFF   r0x04, POSTDEC1
001C C000 FFE5 00085         MOVFF   r0x05, POSTDEC1
0020 C000 FFE5 00086         MOVFF   r0x06, POSTDEC1
0024 C000 FFE5 00087         MOVFF   r0x07, POSTDEC1
0028 C000 FFE5 00088         MOVFF   r0x08, POSTDEC1
002C C000 FFE5 00089         MOVFF   r0x09, POSTDEC1
0030 C000 FFE5 00090         MOVFF   r0x0a, POSTDEC1
0034 0E02      00091         MOVLW   0x02
0036 CFDB F000 00092         MOVFF   PLUSW2, r0x00
003A 0E03      00093         MOVLW   0x03
003C CFDB F000 00094         MOVFF   PLUSW2, r0x01
0040 0E04      00095         MOVLW   0x04
0042 CFDB F000 00096         MOVFF   PLUSW2, r0x02
0046 0E05      00097         MOVLW   0x05
0048 CFDB F000 00098         MOVFF   PLUSW2, r0x03
004C 0E06      00099         MOVLW   0x06
004E CFDB F000 00100         MOVFF   PLUSW2, r0x04
0052 0E07      00101         MOVLW   0x07
0054 CFDB F000 00102         MOVFF   PLUSW2, r0x05
               00103 ;       .line   64; src/newtime.c       if(t1->seconds != t2->seconds)
0058 5000      00104         MOVF    r0x00, W
005A 0F04      00105         ADDLW   0x04
005C 6E00      00106         MOVWF   r0x06
005E 0E00      00107         MOVLW   0x00
0060 2000      00108         ADDWFC  r0x01, W
gpasm-0.13.7 beta               objects/newtime.asm11-15-2013  19:15:36         PAGE  3


LOC  OBJECT CODE     LINE SOURCE TEXT
  VALUE
 
0062 6E00      00109         MOVWF   r0x07
0064 0E00      00110         MOVLW   0x00
0066 2000      00111         ADDWFC  r0x02, W
0068 6E00      00112         MOVWF   r0x08
006A C000 FFE9 00113         MOVFF   r0x06, FSR0L
006E C000 FFF3 00114         MOVFF   r0x07, PRODL
0072 5000      00115         MOVF    r0x08, W
0074 EC00 F000 00116         CALL    __gptrget2
0078 6E00      00117         MOVWF   r0x06
007A CFF3 F000 00118         MOVFF   PRODL, r0x07
007E 5000      00119         MOVF    r0x03, W
0080 0F04      00120         ADDLW   0x04
0082 6E00      00121         MOVWF   r0x08
0084 0E00      00122         MOVLW   0x00
0086 2000      00123         ADDWFC  r0x04, W
0088 6E00      00124         MOVWF   r0x09
008A 0E00      00125         MOVLW   0x00
008C 2000      00126         ADDWFC  r0x05, W
008E 6E00      00127         MOVWF   r0x0a
0090 C000 FFE9 00128         MOVFF   r0x08, FSR0L
0094 C000 FFF3 00129         MOVFF   r0x09, PRODL
0098 5000      00130         MOVF    r0x0a, W
009A EC00 F000 00131         CALL    __gptrget2
009E 6E00      00132         MOVWF   r0x08
00A0 CFF3 F000 00133         MOVFF   PRODL, r0x09
00A4 5000      00134         MOVF    r0x06, W
00A6 1800      00135         XORWF   r0x08, W
00A8 E100      00136         BNZ     _00166_DS_
00AA 5000      00137         MOVF    r0x07, W
00AC 1800      00138         XORWF   r0x09, W
00AE E000      00139         BZ      _00155_DS_
00B0 00140 _00166_DS_:
               00141 ;       .line   65; src/newtime.c       return 0;
00B0 6AF3      00142         CLRF    PRODL
00B2 6AE8      00143         CLRF    WREG
00B4 D000      00144         BRA     _00160_DS_
00B6 00145 _00155_DS_:
               00146 ;       .line   66; src/newtime.c       if(t1->minutes != t2->minutes)
00B6 5000      00147         MOVF    r0x00, W
00B8 0F02      00148         ADDLW   0x02
00BA 6E00      00149         MOVWF   r0x06
00BC 0E00      00150         MOVLW   0x00
00BE 2000      00151         ADDWFC  r0x01, W
00C0 6E00      00152         MOVWF   r0x07
00C2 0E00      00153         MOVLW   0x00
00C4 2000      00154         ADDWFC  r0x02, W
00C6 6E00      00155         MOVWF   r0x08
00C8 C000 FFE9 00156         MOVFF   r0x06, FSR0L
00CC C000 FFF3 00157         MOVFF   r0x07, PRODL
00D0 5000      00158         MOVF    r0x08, W
00D2 EC00 F000 00159         CALL    __gptrget2
00D6 6E00      00160         MOVWF   r0x06
00D8 CFF3 F000 00161         MOVFF   PRODL, r0x07
00DC 5000      00162         MOVF    r0x03, W
gpasm-0.13.7 beta               objects/newtime.asm11-15-2013  19:15:36         PAGE  4


LOC  OBJECT CODE     LINE SOURCE TEXT
  VALUE
 
00DE 0F02      00163         ADDLW   0x02
00E0 6E00      00164         MOVWF   r0x08
00E2 0E00      00165         MOVLW   0x00
00E4 2000      00166         ADDWFC  r0x04, W
00E6 6E00      00167         MOVWF   r0x09
00E8 0E00      00168         MOVLW   0x00
00EA 2000      00169         ADDWFC  r0x05, W
00EC 6E00      00170         MOVWF   r0x0a
00EE C000 FFE9 00171         MOVFF   r0x08, FSR0L
00F2 C000 FFF3 00172         MOVFF   r0x09, PRODL
00F6 5000      00173         MOVF    r0x0a, W
00F8 EC00 F000 00174         CALL    __gptrget2
00FC 6E00      00175         MOVWF   r0x08
00FE CFF3 F000 00176         MOVFF   PRODL, r0x09
0102 5000      00177         MOVF    r0x06, W
0104 1800      00178         XORWF   r0x08, W
0106 E100      00179         BNZ     _00168_DS_
0108 5000      00180         MOVF    r0x07, W
010A 1800      00181         XORWF   r0x09, W
010C E000      00182         BZ      _00157_DS_
010E 00183 _00168_DS_:
               00184 ;       .line   67; src/newtime.c       return 0;
010E 6AF3      00185         CLRF    PRODL
0110 6AE8      00186         CLRF    WREG
0112 D000      00187         BRA     _00160_DS_
0114 00188 _00157_DS_:
               00189 ;       .line   68; src/newtime.c       if(t1->hours != t2->hours)
0114 C000 FFE9 00190         MOVFF   r0x00, FSR0L
0118 C000 FFF3 00191         MOVFF   r0x01, PRODL
011C 5000      00192         MOVF    r0x02, W
011E EC00 F000 00193         CALL    __gptrget2
0122 6E00      00194         MOVWF   r0x00
0124 CFF3 F000 00195         MOVFF   PRODL, r0x01
0128 C000 FFE9 00196         MOVFF   r0x03, FSR0L
012C C000 FFF3 00197         MOVFF   r0x04, PRODL
0130 5000      00198         MOVF    r0x05, W
0132 EC00 F000 00199         CALL    __gptrget2
0136 6E00      00200         MOVWF   r0x03
0138 CFF3 F000 00201         MOVFF   PRODL, r0x04
013C 5000      00202         MOVF    r0x00, W
013E 1800      00203         XORWF   r0x03, W
0140 E100      00204         BNZ     _00170_DS_
0142 5000      00205         MOVF    r0x01, W
0144 1800      00206         XORWF   r0x04, W
0146 E000      00207         BZ      _00159_DS_
0148 00208 _00170_DS_:
               00209 ;       .line   69; src/newtime.c       return 0;
0148 6AF3      00210         CLRF    PRODL
014A 6AE8      00211         CLRF    WREG
014C D000      00212         BRA     _00160_DS_
014E 00213 _00159_DS_:
               00214 ;       .line   70; src/newtime.c       return 1;
014E 6AF3      00215         CLRF    PRODL
0150 0E01      00216         MOVLW   0x01
gpasm-0.13.7 beta               objects/newtime.asm11-15-2013  19:15:36         PAGE  5


LOC  OBJECT CODE     LINE SOURCE TEXT
  VALUE
 
0152 00217 _00160_DS_:
0152 CFE4 F000 00218         MOVFF   PREINC1, r0x0a
0156 CFE4 F000 00219         MOVFF   PREINC1, r0x09
015A CFE4 F000 00220         MOVFF   PREINC1, r0x08
015E CFE4 F000 00221         MOVFF   PREINC1, r0x07
0162 CFE4 F000 00222         MOVFF   PREINC1, r0x06
0166 CFE4 F000 00223         MOVFF   PREINC1, r0x05
016A CFE4 F000 00224         MOVFF   PREINC1, r0x04
016E CFE4 F000 00225         MOVFF   PREINC1, r0x03
0172 CFE4 F000 00226         MOVFF   PREINC1, r0x02
0176 CFE4 F000 00227         MOVFF   PREINC1, r0x01
017A CFE4 F000 00228         MOVFF   PREINC1, r0x00
017E CFE4 FFD9 00229         MOVFF   PREINC1, FSR2L
0182 0012      00230         RETURN  
               00231 
               00232 ; ; Starting pCode block
               00233 S_newtime__time_print   code
0000 00234 _time_print:
               00235 ;       .line   59; src/newtime.c       void time_print(time t, char* str){
0000 CFD9 FFE5 00236         MOVFF   FSR2L, POSTDEC1
0004 CFE1 FFD9 00237         MOVFF   FSR1L, FSR2L
0008 C000 FFE5 00238         MOVFF   r0x00, POSTDEC1
000C C000 FFE5 00239         MOVFF   r0x01, POSTDEC1
0010 C000 FFE5 00240         MOVFF   r0x02, POSTDEC1
0014 C000 FFE5 00241         MOVFF   r0x03, POSTDEC1
0018 C000 FFE5 00242         MOVFF   r0x04, POSTDEC1
001C C000 FFE5 00243         MOVFF   r0x05, POSTDEC1
0020 C000 FFE5 00244         MOVFF   r0x06, POSTDEC1
0024 C000 FFE5 00245         MOVFF   r0x07, POSTDEC1
0028 C000 FFE5 00246         MOVFF   r0x08, POSTDEC1
002C C000 FFE5 00247         MOVFF   r0x09, POSTDEC1
0030 C000 FFE5 00248         MOVFF   r0x0a, POSTDEC1
0034 0E02      00249         MOVLW   0x02
0036 CFDB F000 00250         MOVFF   PLUSW2, r0x00
003A 0E03      00251         MOVLW   0x03
003C CFDB F000 00252         MOVFF   PLUSW2, r0x01
0040 0E04      00253         MOVLW   0x04
0042 CFDB F000 00254         MOVFF   PLUSW2, r0x02
0046 0E05      00255         MOVLW   0x05
0048 CFDB F000 00256         MOVFF   PLUSW2, r0x03
004C 0E06      00257         MOVLW   0x06
004E CFDB F000 00258         MOVFF   PLUSW2, r0x04
0052 0E07      00259         MOVLW   0x07
0054 CFDB F000 00260         MOVFF   PLUSW2, r0x05
               00261 ;       .line   60; src/newtime.c       sprintf(str, "%02d:%02d:%02d", t->hours, t->minutes, t->seconds);
0058 5000      00262         MOVF    r0x00, W
005A 0F04      00263         ADDLW   0x04
005C 6E00      00264         MOVWF   r0x06
005E 0E00      00265         MOVLW   0x00
0060 2000      00266         ADDWFC  r0x01, W
0062 6E00      00267         MOVWF   r0x07
0064 0E00      00268         MOVLW   0x00
0066 2000      00269         ADDWFC  r0x02, W
0068 6E00      00270         MOVWF   r0x08
gpasm-0.13.7 beta               objects/newtime.asm11-15-2013  19:15:36         PAGE  6


LOC  OBJECT CODE     LINE SOURCE TEXT
  VALUE
 
006A C000 FFE9 00271         MOVFF   r0x06, FSR0L
006E C000 FFF3 00272         MOVFF   r0x07, PRODL
0072 5000      00273         MOVF    r0x08, W
0074 EC00 F000 00274         CALL    __gptrget2
0078 6E00      00275         MOVWF   r0x06
007A CFF3 F000 00276         MOVFF   PRODL, r0x07
007E 5000      00277         MOVF    r0x00, W
0080 0F02      00278         ADDLW   0x02
0082 6E00      00279         MOVWF   r0x08
0084 0E00      00280         MOVLW   0x00
0086 2000      00281         ADDWFC  r0x01, W
0088 6E00      00282         MOVWF   r0x09
008A 0E00      00283         MOVLW   0x00
008C 2000      00284         ADDWFC  r0x02, W
008E 6E00      00285         MOVWF   r0x0a
0090 C000 FFE9 00286         MOVFF   r0x08, FSR0L
0094 C000 FFF3 00287         MOVFF   r0x09, PRODL
0098 5000      00288         MOVF    r0x0a, W
009A EC00 F000 00289         CALL    __gptrget2
009E 6E00      00290         MOVWF   r0x08
00A0 CFF3 F000 00291         MOVFF   PRODL, r0x09
00A4 C000 FFE9 00292         MOVFF   r0x00, FSR0L
00A8 C000 FFF3 00293         MOVFF   r0x01, PRODL
00AC 5000      00294         MOVF    r0x02, W
00AE EC00 F000 00295         CALL    __gptrget2
00B2 6E00      00296         MOVWF   r0x00
00B4 CFF3 F000 00297         MOVFF   PRODL, r0x01
00B8 5000      00298         MOVF    r0x07, W
00BA 6EE5      00299         MOVWF   POSTDEC1
00BC 5000      00300         MOVF    r0x06, W
00BE 6EE5      00301         MOVWF   POSTDEC1
00C0 5000      00302         MOVF    r0x09, W
00C2 6EE5      00303         MOVWF   POSTDEC1
00C4 5000      00304         MOVF    r0x08, W
00C6 6EE5      00305         MOVWF   POSTDEC1
00C8 5000      00306         MOVF    r0x01, W
00CA 6EE5      00307         MOVWF   POSTDEC1
00CC 5000      00308         MOVF    r0x00, W
00CE 6EE5      00309         MOVWF   POSTDEC1
00D0 0E00      00310         MOVLW   UPPER(__str_0)
00D2 6EE5      00311         MOVWF   POSTDEC1
00D4 0E00      00312         MOVLW   HIGH(__str_0)
00D6 6EE5      00313         MOVWF   POSTDEC1
00D8 0E00      00314         MOVLW   LOW(__str_0)
00DA 6EE5      00315         MOVWF   POSTDEC1
00DC 5000      00316         MOVF    r0x05, W
00DE 6EE5      00317         MOVWF   POSTDEC1
00E0 5000      00318         MOVF    r0x04, W
00E2 6EE5      00319         MOVWF   POSTDEC1
00E4 5000      00320         MOVF    r0x03, W
00E6 6EE5      00321         MOVWF   POSTDEC1
00E8 EC00 F000 00322         CALL    _sprintf
00EC 0E0C      00323         MOVLW   0x0c
00EE 26E1      00324         ADDWF   FSR1L, F
gpasm-0.13.7 beta               objects/newtime.asm11-15-2013  19:15:36         PAGE  7


LOC  OBJECT CODE     LINE SOURCE TEXT
  VALUE
 
00F0 CFE4 F000 00325         MOVFF   PREINC1, r0x0a
00F4 CFE4 F000 00326         MOVFF   PREINC1, r0x09
00F8 CFE4 F000 00327         MOVFF   PREINC1, r0x08
00FC CFE4 F000 00328         MOVFF   PREINC1, r0x07
0100 CFE4 F000 00329         MOVFF   PREINC1, r0x06
0104 CFE4 F000 00330         MOVFF   PREINC1, r0x05
0108 CFE4 F000 00331         MOVFF   PREINC1, r0x04
010C CFE4 F000 00332         MOVFF   PREINC1, r0x03
0110 CFE4 F000 00333         MOVFF   PREINC1, r0x02
0114 CFE4 F000 00334         MOVFF   PREINC1, r0x01
0118 CFE4 F000 00335         MOVFF   PREINC1, r0x00
011C CFE4 FFD9 00336         MOVFF   PREINC1, FSR2L
0120 0012      00337         RETURN  
               00338 
               00339 ; ; Starting pCode block
               00340 S_newtime__add_hour     code
0000 00341 _add_hour:
               00342 ;       .line   55; src/newtime.c       void add_hour(time t){
0000 CFD9 FFE5 00343         MOVFF   FSR2L, POSTDEC1
0004 CFE1 FFD9 00344         MOVFF   FSR1L, FSR2L
0008 C000 FFE5 00345         MOVFF   r0x00, POSTDEC1
000C C000 FFE5 00346         MOVFF   r0x01, POSTDEC1
0010 C000 FFE5 00347         MOVFF   r0x02, POSTDEC1
0014 C000 FFE5 00348         MOVFF   r0x03, POSTDEC1
0018 C000 FFE5 00349         MOVFF   r0x04, POSTDEC1
001C 0E02      00350         MOVLW   0x02
001E CFDB F000 00351         MOVFF   PLUSW2, r0x00
0022 0E03      00352         MOVLW   0x03
0024 CFDB F000 00353         MOVFF   PLUSW2, r0x01
0028 0E04      00354         MOVLW   0x04
002A CFDB F000 00355         MOVFF   PLUSW2, r0x02
               00356 ;       .line   56; src/newtime.c       set_hours(t,t->hours + 1);
002E C000 FFE9 00357         MOVFF   r0x00, FSR0L
0032 C000 FFF3 00358         MOVFF   r0x01, PRODL
0036 5000      00359         MOVF    r0x02, W
0038 EC00 F000 00360         CALL    __gptrget2
003C 6E00      00361         MOVWF   r0x03
003E CFF3 F000 00362         MOVFF   PRODL, r0x04
0042 2A00      00363         INCF    r0x03, F
0044 B0D8      00364         BTFSC   STATUS, 0
0046 2A00      00365         INCF    r0x04, F
0048 5000      00366         MOVF    r0x04, W
004A 6EE5      00367         MOVWF   POSTDEC1
004C 5000      00368         MOVF    r0x03, W
004E 6EE5      00369         MOVWF   POSTDEC1
0050 5000      00370         MOVF    r0x02, W
0052 6EE5      00371         MOVWF   POSTDEC1
0054 5000      00372         MOVF    r0x01, W
0056 6EE5      00373         MOVWF   POSTDEC1
0058 5000      00374         MOVF    r0x00, W
005A 6EE5      00375         MOVWF   POSTDEC1
005C EC00 F000 00376         CALL    _set_hours
0060 0E05      00377         MOVLW   0x05
0062 26E1      00378         ADDWF   FSR1L, F
gpasm-0.13.7 beta               objects/newtime.asm11-15-2013  19:15:36         PAGE  8


LOC  OBJECT CODE     LINE SOURCE TEXT
  VALUE
 
0064 CFE4 F000 00379         MOVFF   PREINC1, r0x04
0068 CFE4 F000 00380         MOVFF   PREINC1, r0x03
006C CFE4 F000 00381         MOVFF   PREINC1, r0x02
0070 CFE4 F000 00382         MOVFF   PREINC1, r0x01
0074 CFE4 F000 00383         MOVFF   PREINC1, r0x00
0078 CFE4 FFD9 00384         MOVFF   PREINC1, FSR2L
007C 0012      00385         RETURN  
               00386 
               00387 ; ; Starting pCode block
               00388 S_newtime__add_minute   code
0000 00389 _add_minute:
               00390 ;       .line   50; src/newtime.c       void add_minute(time t){
0000 CFD9 FFE5 00391         MOVFF   FSR2L, POSTDEC1
0004 CFE1 FFD9 00392         MOVFF   FSR1L, FSR2L
0008 C000 FFE5 00393         MOVFF   r0x00, POSTDEC1
000C C000 FFE5 00394         MOVFF   r0x01, POSTDEC1
0010 C000 FFE5 00395         MOVFF   r0x02, POSTDEC1
0014 C000 FFE5 00396         MOVFF   r0x03, POSTDEC1
0018 C000 FFE5 00397         MOVFF   r0x04, POSTDEC1
001C C000 FFE5 00398         MOVFF   r0x05, POSTDEC1
0020 0E02      00399         MOVLW   0x02
0022 CFDB F000 00400         MOVFF   PLUSW2, r0x00
0026 0E03      00401         MOVLW   0x03
0028 CFDB F000 00402         MOVFF   PLUSW2, r0x01
002C 0E04      00403         MOVLW   0x04
002E CFDB F000 00404         MOVFF   PLUSW2, r0x02
               00405 ;       .line   51; src/newtime.c       if(set_minutes(t,t->minutes + 1) != 0)
0032 5000      00406         MOVF    r0x00, W
0034 0F02      00407         ADDLW   0x02
0036 6E00      00408         MOVWF   r0x03
0038 0E00      00409         MOVLW   0x00
003A 2000      00410         ADDWFC  r0x01, W
003C 6E00      00411         MOVWF   r0x04
003E 0E00      00412         MOVLW   0x00
0040 2000      00413         ADDWFC  r0x02, W
0042 6E00      00414         MOVWF   r0x05
0044 C000 FFE9 00415         MOVFF   r0x03, FSR0L
0048 C000 FFF3 00416         MOVFF   r0x04, PRODL
004C 5000      00417         MOVF    r0x05, W
004E EC00 F000 00418         CALL    __gptrget2
0052 6E00      00419         MOVWF   r0x03
0054 CFF3 F000 00420         MOVFF   PRODL, r0x04
0058 2A00      00421         INCF    r0x03, F
005A B0D8      00422         BTFSC   STATUS, 0
005C 2A00      00423         INCF    r0x04, F
005E 5000      00424         MOVF    r0x04, W
0060 6EE5      00425         MOVWF   POSTDEC1
0062 5000      00426         MOVF    r0x03, W
0064 6EE5      00427         MOVWF   POSTDEC1
0066 5000      00428         MOVF    r0x02, W
0068 6EE5      00429         MOVWF   POSTDEC1
006A 5000      00430         MOVF    r0x01, W
006C 6EE5      00431         MOVWF   POSTDEC1
006E 5000      00432         MOVF    r0x00, W
gpasm-0.13.7 beta               objects/newtime.asm11-15-2013  19:15:36         PAGE  9


LOC  OBJECT CODE     LINE SOURCE TEXT
  VALUE
 
0070 6EE5      00433         MOVWF   POSTDEC1
0072 EC00 F000 00434         CALL    _set_minutes
0076 6E00      00435         MOVWF   r0x03
0078 CFF3 F000 00436         MOVFF   PRODL, r0x04
007C 0E05      00437         MOVLW   0x05
007E 26E1      00438         ADDWF   FSR1L, F
0080 5000      00439         MOVF    r0x03, W
0082 1000      00440         IORWF   r0x04, W
0084 E000      00441         BZ      _00139_DS_
               00442 ;       .line   52; src/newtime.c       add_hour(t);
0086 5000      00443         MOVF    r0x02, W
0088 6EE5      00444         MOVWF   POSTDEC1
008A 5000      00445         MOVF    r0x01, W
008C 6EE5      00446         MOVWF   POSTDEC1
008E 5000      00447         MOVF    r0x00, W
0090 6EE5      00448         MOVWF   POSTDEC1
0092 EC00 F000 00449         CALL    _add_hour
0096 0E03      00450         MOVLW   0x03
0098 26E1      00451         ADDWF   FSR1L, F
009A 00452 _00139_DS_:
009A CFE4 F000 00453         MOVFF   PREINC1, r0x05
009E CFE4 F000 00454         MOVFF   PREINC1, r0x04
00A2 CFE4 F000 00455         MOVFF   PREINC1, r0x03
00A6 CFE4 F000 00456         MOVFF   PREINC1, r0x02
00AA CFE4 F000 00457         MOVFF   PREINC1, r0x01
00AE CFE4 F000 00458         MOVFF   PREINC1, r0x00
00B2 CFE4 FFD9 00459         MOVFF   PREINC1, FSR2L
00B6 0012      00460         RETURN  
               00461 
               00462 ; ; Starting pCode block
               00463 S_newtime__add_second   code
0000 00464 _add_second:
               00465 ;       .line   45; src/newtime.c       void add_second(time t){
0000 CFD9 FFE5 00466         MOVFF   FSR2L, POSTDEC1
0004 CFE1 FFD9 00467         MOVFF   FSR1L, FSR2L
0008 C000 FFE5 00468         MOVFF   r0x00, POSTDEC1
000C C000 FFE5 00469         MOVFF   r0x01, POSTDEC1
0010 C000 FFE5 00470         MOVFF   r0x02, POSTDEC1
0014 C000 FFE5 00471         MOVFF   r0x03, POSTDEC1
0018 C000 FFE5 00472         MOVFF   r0x04, POSTDEC1
001C C000 FFE5 00473         MOVFF   r0x05, POSTDEC1
0020 0E02      00474         MOVLW   0x02
0022 CFDB F000 00475         MOVFF   PLUSW2, r0x00
0026 0E03      00476         MOVLW   0x03
0028 CFDB F000 00477         MOVFF   PLUSW2, r0x01
002C 0E04      00478         MOVLW   0x04
002E CFDB F000 00479         MOVFF   PLUSW2, r0x02
               00480 ;       .line   46; src/newtime.c       if(set_seconds(t,t->seconds + 1) != 0)
0032 5000      00481         MOVF    r0x00, W
0034 0F04      00482         ADDLW   0x04
0036 6E00      00483         MOVWF   r0x03
0038 0E00      00484         MOVLW   0x00
003A 2000      00485         ADDWFC  r0x01, W
003C 6E00      00486         MOVWF   r0x04
gpasm-0.13.7 beta               objects/newtime.asm11-15-2013  19:15:36         PAGE 10


LOC  OBJECT CODE     LINE SOURCE TEXT
  VALUE
 
003E 0E00      00487         MOVLW   0x00
0040 2000      00488         ADDWFC  r0x02, W
0042 6E00      00489         MOVWF   r0x05
0044 C000 FFE9 00490         MOVFF   r0x03, FSR0L
0048 C000 FFF3 00491         MOVFF   r0x04, PRODL
004C 5000      00492         MOVF    r0x05, W
004E EC00 F000 00493         CALL    __gptrget2
0052 6E00      00494         MOVWF   r0x03
0054 CFF3 F000 00495         MOVFF   PRODL, r0x04
0058 2A00      00496         INCF    r0x03, F
005A B0D8      00497         BTFSC   STATUS, 0
005C 2A00      00498         INCF    r0x04, F
005E 5000      00499         MOVF    r0x04, W
0060 6EE5      00500         MOVWF   POSTDEC1
0062 5000      00501         MOVF    r0x03, W
0064 6EE5      00502         MOVWF   POSTDEC1
0066 5000      00503         MOVF    r0x02, W
0068 6EE5      00504         MOVWF   POSTDEC1
006A 5000      00505         MOVF    r0x01, W
006C 6EE5      00506         MOVWF   POSTDEC1
006E 5000      00507         MOVF    r0x00, W
0070 6EE5      00508         MOVWF   POSTDEC1
0072 EC00 F000 00509         CALL    _set_seconds
0076 6E00      00510         MOVWF   r0x03
0078 CFF3 F000 00511         MOVFF   PRODL, r0x04
007C 0E05      00512         MOVLW   0x05
007E 26E1      00513         ADDWF   FSR1L, F
0080 5000      00514         MOVF    r0x03, W
0082 1000      00515         IORWF   r0x04, W
0084 E000      00516         BZ      _00132_DS_
               00517 ;       .line   47; src/newtime.c       add_minute(t);
0086 5000      00518         MOVF    r0x02, W
0088 6EE5      00519         MOVWF   POSTDEC1
008A 5000      00520         MOVF    r0x01, W
008C 6EE5      00521         MOVWF   POSTDEC1
008E 5000      00522         MOVF    r0x00, W
0090 6EE5      00523         MOVWF   POSTDEC1
0092 EC00 F000 00524         CALL    _add_minute
0096 0E03      00525         MOVLW   0x03
0098 26E1      00526         ADDWF   FSR1L, F
009A 00527 _00132_DS_:
009A CFE4 F000 00528         MOVFF   PREINC1, r0x05
009E CFE4 F000 00529         MOVFF   PREINC1, r0x04
00A2 CFE4 F000 00530         MOVFF   PREINC1, r0x03
00A6 CFE4 F000 00531         MOVFF   PREINC1, r0x02
00AA CFE4 F000 00532         MOVFF   PREINC1, r0x01
00AE CFE4 F000 00533         MOVFF   PREINC1, r0x00
00B2 CFE4 FFD9 00534         MOVFF   PREINC1, FSR2L
00B6 0012      00535         RETURN  
               00536 
               00537 ; ; Starting pCode block
               00538 S_newtime__set_seconds  code
0000 00539 _set_seconds:
               00540 ;       .line   39; src/newtime.c       int set_seconds(time t, int value){
gpasm-0.13.7 beta               objects/newtime.asm11-15-2013  19:15:36         PAGE 11


LOC  OBJECT CODE     LINE SOURCE TEXT
  VALUE
 
0000 CFD9 FFE5 00541         MOVFF   FSR2L, POSTDEC1
0004 CFE1 FFD9 00542         MOVFF   FSR1L, FSR2L
0008 C000 FFE5 00543         MOVFF   r0x00, POSTDEC1
000C C000 FFE5 00544         MOVFF   r0x01, POSTDEC1
0010 C000 FFE5 00545         MOVFF   r0x02, POSTDEC1
0014 C000 FFE5 00546         MOVFF   r0x03, POSTDEC1
0018 C000 FFE5 00547         MOVFF   r0x04, POSTDEC1
001C C000 FFE5 00548         MOVFF   r0x05, POSTDEC1
0020 C000 FFE5 00549         MOVFF   r0x06, POSTDEC1
0024 0E02      00550         MOVLW   0x02
0026 CFDB F000 00551         MOVFF   PLUSW2, r0x00
002A 0E03      00552         MOVLW   0x03
002C CFDB F000 00553         MOVFF   PLUSW2, r0x01
0030 0E04      00554         MOVLW   0x04
0032 CFDB F000 00555         MOVFF   PLUSW2, r0x02
0036 0E05      00556         MOVLW   0x05
0038 CFDB F000 00557         MOVFF   PLUSW2, r0x03
003C 0E06      00558         MOVLW   0x06
003E CFDB F000 00559         MOVFF   PLUSW2, r0x04
               00560 ;       .line   40; src/newtime.c       int overflow = value/60;
0042 0E00      00561         MOVLW   0x00
0044 6EE5      00562         MOVWF   POSTDEC1
0046 0E3C      00563         MOVLW   0x3c
0048 6EE5      00564         MOVWF   POSTDEC1
004A 5000      00565         MOVF    r0x04, W
004C 6EE5      00566         MOVWF   POSTDEC1
004E 5000      00567         MOVF    r0x03, W
0050 6EE5      00568         MOVWF   POSTDEC1
0052 EC00 F000 00569         CALL    __divsint
0056 6E00      00570         MOVWF   r0x05
0058 CFF3 F000 00571         MOVFF   PRODL, r0x06
005C 0E04      00572         MOVLW   0x04
005E 26E1      00573         ADDWF   FSR1L, F
               00574 ;       .line   41; src/newtime.c       t->seconds = value % 60;
0060 0E04      00575         MOVLW   0x04
0062 2600      00576         ADDWF   r0x00, F
0064 0E00      00577         MOVLW   0x00
0066 2200      00578         ADDWFC  r0x01, F
0068 0E00      00579         MOVLW   0x00
006A 2200      00580         ADDWFC  r0x02, F
006C 0E00      00581         MOVLW   0x00
006E 6EE5      00582         MOVWF   POSTDEC1
0070 0E3C      00583         MOVLW   0x3c
0072 6EE5      00584         MOVWF   POSTDEC1
0074 5000      00585         MOVF    r0x04, W
0076 6EE5      00586         MOVWF   POSTDEC1
0078 5000      00587         MOVF    r0x03, W
007A 6EE5      00588         MOVWF   POSTDEC1
007C EC00 F000 00589         CALL    __modsint
0080 6E00      00590         MOVWF   r0x03
0082 CFF3 F000 00591         MOVFF   PRODL, r0x04
0086 0E04      00592         MOVLW   0x04
0088 26E1      00593         ADDWF   FSR1L, F
008A C000 FFE5 00594         MOVFF   r0x03, POSTDEC1
gpasm-0.13.7 beta               objects/newtime.asm11-15-2013  19:15:36         PAGE 12


LOC  OBJECT CODE     LINE SOURCE TEXT
  VALUE
 
008E C000 FFF4 00595         MOVFF   r0x04, PRODH
0092 C000 FFE9 00596         MOVFF   r0x00, FSR0L
0096 C000 FFF3 00597         MOVFF   r0x01, PRODL
009A 5000      00598         MOVF    r0x02, W
009C EC00 F000 00599         CALL    __gptrput2
               00600 ;       .line   42; src/newtime.c       return overflow;
00A0 C000 FFF3 00601         MOVFF   r0x06, PRODL
00A4 5000      00602         MOVF    r0x05, W
00A6 CFE4 F000 00603         MOVFF   PREINC1, r0x06
00AA CFE4 F000 00604         MOVFF   PREINC1, r0x05
00AE CFE4 F000 00605         MOVFF   PREINC1, r0x04
00B2 CFE4 F000 00606         MOVFF   PREINC1, r0x03
00B6 CFE4 F000 00607         MOVFF   PREINC1, r0x02
00BA CFE4 F000 00608         MOVFF   PREINC1, r0x01
00BE CFE4 F000 00609         MOVFF   PREINC1, r0x00
00C2 CFE4 FFD9 00610         MOVFF   PREINC1, FSR2L
00C6 0012      00611         RETURN  
               00612 
               00613 ; ; Starting pCode block
               00614 S_newtime__set_minutes  code
0000 00615 _set_minutes:
               00616 ;       .line   33; src/newtime.c       int set_minutes(time t, int value){
0000 CFD9 FFE5 00617         MOVFF   FSR2L, POSTDEC1
0004 CFE1 FFD9 00618         MOVFF   FSR1L, FSR2L
0008 C000 FFE5 00619         MOVFF   r0x00, POSTDEC1
000C C000 FFE5 00620         MOVFF   r0x01, POSTDEC1
0010 C000 FFE5 00621         MOVFF   r0x02, POSTDEC1
0014 C000 FFE5 00622         MOVFF   r0x03, POSTDEC1
0018 C000 FFE5 00623         MOVFF   r0x04, POSTDEC1
001C C000 FFE5 00624         MOVFF   r0x05, POSTDEC1
0020 C000 FFE5 00625         MOVFF   r0x06, POSTDEC1
0024 0E02      00626         MOVLW   0x02
0026 CFDB F000 00627         MOVFF   PLUSW2, r0x00
002A 0E03      00628         MOVLW   0x03
002C CFDB F000 00629         MOVFF   PLUSW2, r0x01
0030 0E04      00630         MOVLW   0x04
0032 CFDB F000 00631         MOVFF   PLUSW2, r0x02
0036 0E05      00632         MOVLW   0x05
0038 CFDB F000 00633         MOVFF   PLUSW2, r0x03
003C 0E06      00634         MOVLW   0x06
003E CFDB F000 00635         MOVFF   PLUSW2, r0x04
               00636 ;       .line   34; src/newtime.c       int overflow = value/60;
0042 0E00      00637         MOVLW   0x00
0044 6EE5      00638         MOVWF   POSTDEC1
0046 0E3C      00639         MOVLW   0x3c
0048 6EE5      00640         MOVWF   POSTDEC1
004A 5000      00641         MOVF    r0x04, W
004C 6EE5      00642         MOVWF   POSTDEC1
004E 5000      00643         MOVF    r0x03, W
0050 6EE5      00644         MOVWF   POSTDEC1
0052 EC00 F000 00645         CALL    __divsint
0056 6E00      00646         MOVWF   r0x05
0058 CFF3 F000 00647         MOVFF   PRODL, r0x06
005C 0E04      00648         MOVLW   0x04
gpasm-0.13.7 beta               objects/newtime.asm11-15-2013  19:15:36         PAGE 13


LOC  OBJECT CODE     LINE SOURCE TEXT
  VALUE
 
005E 26E1      00649         ADDWF   FSR1L, F
               00650 ;       .line   35; src/newtime.c       t->minutes = value%60;
0060 0E02      00651         MOVLW   0x02
0062 2600      00652         ADDWF   r0x00, F
0064 0E00      00653         MOVLW   0x00
0066 2200      00654         ADDWFC  r0x01, F
0068 0E00      00655         MOVLW   0x00
006A 2200      00656         ADDWFC  r0x02, F
006C 0E00      00657         MOVLW   0x00
006E 6EE5      00658         MOVWF   POSTDEC1
0070 0E3C      00659         MOVLW   0x3c
0072 6EE5      00660         MOVWF   POSTDEC1
0074 5000      00661         MOVF    r0x04, W
0076 6EE5      00662         MOVWF   POSTDEC1
0078 5000      00663         MOVF    r0x03, W
007A 6EE5      00664         MOVWF   POSTDEC1
007C EC00 F000 00665         CALL    __modsint
0080 6E00      00666         MOVWF   r0x03
0082 CFF3 F000 00667         MOVFF   PRODL, r0x04
0086 0E04      00668         MOVLW   0x04
0088 26E1      00669         ADDWF   FSR1L, F
008A C000 FFE5 00670         MOVFF   r0x03, POSTDEC1
008E C000 FFF4 00671         MOVFF   r0x04, PRODH
0092 C000 FFE9 00672         MOVFF   r0x00, FSR0L
0096 C000 FFF3 00673         MOVFF   r0x01, PRODL
009A 5000      00674         MOVF    r0x02, W
009C EC00 F000 00675         CALL    __gptrput2
               00676 ;       .line   36; src/newtime.c       return overflow;
00A0 C000 FFF3 00677         MOVFF   r0x06, PRODL
00A4 5000      00678         MOVF    r0x05, W
00A6 CFE4 F000 00679         MOVFF   PREINC1, r0x06
00AA CFE4 F000 00680         MOVFF   PREINC1, r0x05
00AE CFE4 F000 00681         MOVFF   PREINC1, r0x04
00B2 CFE4 F000 00682         MOVFF   PREINC1, r0x03
00B6 CFE4 F000 00683         MOVFF   PREINC1, r0x02
00BA CFE4 F000 00684         MOVFF   PREINC1, r0x01
00BE CFE4 F000 00685         MOVFF   PREINC1, r0x00
00C2 CFE4 FFD9 00686         MOVFF   PREINC1, FSR2L
00C6 0012      00687         RETURN  
               00688 
               00689 ; ; Starting pCode block
               00690 S_newtime__set_hours    code
0000 00691 _set_hours:
               00692 ;       .line   27; src/newtime.c       int set_hours(time t, int value){
0000 CFD9 FFE5 00693         MOVFF   FSR2L, POSTDEC1
0004 CFE1 FFD9 00694         MOVFF   FSR1L, FSR2L
0008 C000 FFE5 00695         MOVFF   r0x00, POSTDEC1
000C C000 FFE5 00696         MOVFF   r0x01, POSTDEC1
0010 C000 FFE5 00697         MOVFF   r0x02, POSTDEC1
0014 C000 FFE5 00698         MOVFF   r0x03, POSTDEC1
0018 C000 FFE5 00699         MOVFF   r0x04, POSTDEC1
001C C000 FFE5 00700         MOVFF   r0x05, POSTDEC1
0020 C000 FFE5 00701         MOVFF   r0x06, POSTDEC1
0024 0E02      00702         MOVLW   0x02
gpasm-0.13.7 beta               objects/newtime.asm11-15-2013  19:15:36         PAGE 14


LOC  OBJECT CODE     LINE SOURCE TEXT
  VALUE
 
0026 CFDB F000 00703         MOVFF   PLUSW2, r0x00
002A 0E03      00704         MOVLW   0x03
002C CFDB F000 00705         MOVFF   PLUSW2, r0x01
0030 0E04      00706         MOVLW   0x04
0032 CFDB F000 00707         MOVFF   PLUSW2, r0x02
0036 0E05      00708         MOVLW   0x05
0038 CFDB F000 00709         MOVFF   PLUSW2, r0x03
003C 0E06      00710         MOVLW   0x06
003E CFDB F000 00711         MOVFF   PLUSW2, r0x04
               00712 ;       .line   28; src/newtime.c       int overflow = value/24;
0042 0E00      00713         MOVLW   0x00
0044 6EE5      00714         MOVWF   POSTDEC1
0046 0E18      00715         MOVLW   0x18
0048 6EE5      00716         MOVWF   POSTDEC1
004A 5000      00717         MOVF    r0x04, W
004C 6EE5      00718         MOVWF   POSTDEC1
004E 5000      00719         MOVF    r0x03, W
0050 6EE5      00720         MOVWF   POSTDEC1
0052 EC00 F000 00721         CALL    __divsint
0056 6E00      00722         MOVWF   r0x05
0058 CFF3 F000 00723         MOVFF   PRODL, r0x06
005C 0E04      00724         MOVLW   0x04
005E 26E1      00725         ADDWF   FSR1L, F
               00726 ;       .line   29; src/newtime.c       t->hours = value%24;
0060 0E00      00727         MOVLW   0x00
0062 6EE5      00728         MOVWF   POSTDEC1
0064 0E18      00729         MOVLW   0x18
0066 6EE5      00730         MOVWF   POSTDEC1
0068 5000      00731         MOVF    r0x04, W
006A 6EE5      00732         MOVWF   POSTDEC1
006C 5000      00733         MOVF    r0x03, W
006E 6EE5      00734         MOVWF   POSTDEC1
0070 EC00 F000 00735         CALL    __modsint
0074 6E00      00736         MOVWF   r0x03
0076 CFF3 F000 00737         MOVFF   PRODL, r0x04
007A 0E04      00738         MOVLW   0x04
007C 26E1      00739         ADDWF   FSR1L, F
007E C000 FFE5 00740         MOVFF   r0x03, POSTDEC1
0082 C000 FFF4 00741         MOVFF   r0x04, PRODH
0086 C000 FFE9 00742         MOVFF   r0x00, FSR0L
008A C000 FFF3 00743         MOVFF   r0x01, PRODL
008E 5000      00744         MOVF    r0x02, W
0090 EC00 F000 00745         CALL    __gptrput2
               00746 ;       .line   30; src/newtime.c       return overflow;
0094 C000 FFF3 00747         MOVFF   r0x06, PRODL
0098 5000      00748         MOVF    r0x05, W
009A CFE4 F000 00749         MOVFF   PREINC1, r0x06
009E CFE4 F000 00750         MOVFF   PREINC1, r0x05
00A2 CFE4 F000 00751         MOVFF   PREINC1, r0x04
00A6 CFE4 F000 00752         MOVFF   PREINC1, r0x03
00AA CFE4 F000 00753         MOVFF   PREINC1, r0x02
00AE CFE4 F000 00754         MOVFF   PREINC1, r0x01
00B2 CFE4 F000 00755         MOVFF   PREINC1, r0x00
00B6 CFE4 FFD9 00756         MOVFF   PREINC1, FSR2L
gpasm-0.13.7 beta               objects/newtime.asm11-15-2013  19:15:36         PAGE 15


LOC  OBJECT CODE     LINE SOURCE TEXT
  VALUE
 
00BA 0012      00757         RETURN  
               00758 
               00759 ; ; Starting pCode block
               00760 S_newtime__time_set     code
0000 00761 _time_set:
               00762 ;       .line   21; src/newtime.c       void time_set(time t, int hours, int minutes, int seconds){
0000 CFD9 FFE5 00763         MOVFF   FSR2L, POSTDEC1
0004 CFE1 FFD9 00764         MOVFF   FSR1L, FSR2L
0008 C000 FFE5 00765         MOVFF   r0x00, POSTDEC1
000C C000 FFE5 00766         MOVFF   r0x01, POSTDEC1
0010 C000 FFE5 00767         MOVFF   r0x02, POSTDEC1
0014 C000 FFE5 00768         MOVFF   r0x03, POSTDEC1
0018 C000 FFE5 00769         MOVFF   r0x04, POSTDEC1
001C C000 FFE5 00770         MOVFF   r0x05, POSTDEC1
0020 C000 FFE5 00771         MOVFF   r0x06, POSTDEC1
0024 C000 FFE5 00772         MOVFF   r0x07, POSTDEC1
0028 C000 FFE5 00773         MOVFF   r0x08, POSTDEC1
002C 0E02      00774         MOVLW   0x02
002E CFDB F000 00775         MOVFF   PLUSW2, r0x00
0032 0E03      00776         MOVLW   0x03
0034 CFDB F000 00777         MOVFF   PLUSW2, r0x01
0038 0E04      00778         MOVLW   0x04
003A CFDB F000 00779         MOVFF   PLUSW2, r0x02
003E 0E05      00780         MOVLW   0x05
0040 CFDB F000 00781         MOVFF   PLUSW2, r0x03
0044 0E06      00782         MOVLW   0x06
0046 CFDB F000 00783         MOVFF   PLUSW2, r0x04
004A 0E07      00784         MOVLW   0x07
004C CFDB F000 00785         MOVFF   PLUSW2, r0x05
0050 0E08      00786         MOVLW   0x08
0052 CFDB F000 00787         MOVFF   PLUSW2, r0x06
0056 0E09      00788         MOVLW   0x09
0058 CFDB F000 00789         MOVFF   PLUSW2, r0x07
005C 0E0A      00790         MOVLW   0x0a
005E CFDB F000 00791         MOVFF   PLUSW2, r0x08
               00792 ;       .line   22; src/newtime.c       set_hours(t,hours);
0062 5000      00793         MOVF    r0x04, W
0064 6EE5      00794         MOVWF   POSTDEC1
0066 5000      00795         MOVF    r0x03, W
0068 6EE5      00796         MOVWF   POSTDEC1
006A 5000      00797         MOVF    r0x02, W
006C 6EE5      00798         MOVWF   POSTDEC1
006E 5000      00799         MOVF    r0x01, W
0070 6EE5      00800         MOVWF   POSTDEC1
0072 5000      00801         MOVF    r0x00, W
0074 6EE5      00802         MOVWF   POSTDEC1
0076 EC00 F000 00803         CALL    _set_hours
007A 0E05      00804         MOVLW   0x05
007C 26E1      00805         ADDWF   FSR1L, F
               00806 ;       .line   23; src/newtime.c       set_minutes(t,minutes);
007E 5000      00807         MOVF    r0x06, W
0080 6EE5      00808         MOVWF   POSTDEC1
0082 5000      00809         MOVF    r0x05, W
0084 6EE5      00810         MOVWF   POSTDEC1
gpasm-0.13.7 beta               objects/newtime.asm11-15-2013  19:15:36         PAGE 16


LOC  OBJECT CODE     LINE SOURCE TEXT
  VALUE
 
0086 5000      00811         MOVF    r0x02, W
0088 6EE5      00812         MOVWF   POSTDEC1
008A 5000      00813         MOVF    r0x01, W
008C 6EE5      00814         MOVWF   POSTDEC1
008E 5000      00815         MOVF    r0x00, W
0090 6EE5      00816         MOVWF   POSTDEC1
0092 EC00 F000 00817         CALL    _set_minutes
0096 0E05      00818         MOVLW   0x05
0098 26E1      00819         ADDWF   FSR1L, F
               00820 ;       .line   24; src/newtime.c       set_seconds(t,seconds);
009A 5000      00821         MOVF    r0x08, W
009C 6EE5      00822         MOVWF   POSTDEC1
009E 5000      00823         MOVF    r0x07, W
00A0 6EE5      00824         MOVWF   POSTDEC1
00A2 5000      00825         MOVF    r0x02, W
00A4 6EE5      00826         MOVWF   POSTDEC1
00A6 5000      00827         MOVF    r0x01, W
00A8 6EE5      00828         MOVWF   POSTDEC1
00AA 5000      00829         MOVF    r0x00, W
00AC 6EE5      00830         MOVWF   POSTDEC1
00AE EC00 F000 00831         CALL    _set_seconds
00B2 0E05      00832         MOVLW   0x05
00B4 26E1      00833         ADDWF   FSR1L, F
00B6 CFE4 F000 00834         MOVFF   PREINC1, r0x08
00BA CFE4 F000 00835         MOVFF   PREINC1, r0x07
00BE CFE4 F000 00836         MOVFF   PREINC1, r0x06
00C2 CFE4 F000 00837         MOVFF   PREINC1, r0x05
00C6 CFE4 F000 00838         MOVFF   PREINC1, r0x04
00CA CFE4 F000 00839         MOVFF   PREINC1, r0x03
00CE CFE4 F000 00840         MOVFF   PREINC1, r0x02
00D2 CFE4 F000 00841         MOVFF   PREINC1, r0x01
00D6 CFE4 F000 00842         MOVFF   PREINC1, r0x00
00DA CFE4 FFD9 00843         MOVFF   PREINC1, FSR2L
00DE 0012      00844         RETURN  
               00845 
               00846 ; ; Starting pCode block
               00847 S_newtime__time_create  code
0000 00848 _time_create:
               00849 ;       .line   15; src/newtime.c       time time_create(){
0000 CFD9 FFE5 00850         MOVFF   FSR2L, POSTDEC1
0004 CFE1 FFD9 00851         MOVFF   FSR1L, FSR2L
0008 C000 FFE5 00852         MOVFF   r0x00, POSTDEC1
000C C000 FFE5 00853         MOVFF   r0x01, POSTDEC1
0010 C000 FFE5 00854         MOVFF   r0x02, POSTDEC1
               00855 ;       .line   16; src/newtime.c       time t = (time)malloc(sizeof (struct time_struct));
0014 0E06      00856         MOVLW   0x06
0016 6EE5      00857         MOVWF   POSTDEC1
0018 EC00 F000 00858         CALL    _malloc
001C 6E00      00859         MOVWF   r0x00
001E CFF3 F000 00860         MOVFF   PRODL, r0x01
0022 2AE1      00861         INCF    FSR1L, F
0024 5000      00862         MOVF    r0x01, W
0026 6E00      00863         MOVWF   r0x01
0028 5000      00864         MOVF    r0x00, W
gpasm-0.13.7 beta               objects/newtime.asm11-15-2013  19:15:36         PAGE 17


LOC  OBJECT CODE     LINE SOURCE TEXT
  VALUE
 
002A 6E00      00865         MOVWF   r0x00
002C 0E80      00866         MOVLW   0x80
002E 6E00      00867         MOVWF   r0x02
               00868 ;       .line   17; src/newtime.c       time_set(t,0,0,0);
0030 0E00      00869         MOVLW   0x00
0032 6EE5      00870         MOVWF   POSTDEC1
0034 0E00      00871         MOVLW   0x00
0036 6EE5      00872         MOVWF   POSTDEC1
0038 0E00      00873         MOVLW   0x00
003A 6EE5      00874         MOVWF   POSTDEC1
003C 0E00      00875         MOVLW   0x00
003E 6EE5      00876         MOVWF   POSTDEC1
0040 0E00      00877         MOVLW   0x00
0042 6EE5      00878         MOVWF   POSTDEC1
0044 0E00      00879         MOVLW   0x00
0046 6EE5      00880         MOVWF   POSTDEC1
0048 5000      00881         MOVF    r0x02, W
004A 6EE5      00882         MOVWF   POSTDEC1
004C 5000      00883         MOVF    r0x01, W
004E 6EE5      00884         MOVWF   POSTDEC1
0050 5000      00885         MOVF    r0x00, W
0052 6EE5      00886         MOVWF   POSTDEC1
0054 EC00 F000 00887         CALL    _time_set
0058 0E09      00888         MOVLW   0x09
005A 26E1      00889         ADDWF   FSR1L, F
               00890 ;       .line   18; src/newtime.c       return t;
005C C000 FFF4 00891         MOVFF   r0x02, PRODH
0060 C000 FFF3 00892         MOVFF   r0x01, PRODL
0064 5000      00893         MOVF    r0x00, W
0066 CFE4 F000 00894         MOVFF   PREINC1, r0x02
006A CFE4 F000 00895         MOVFF   PREINC1, r0x01
006E CFE4 F000 00896         MOVFF   PREINC1, r0x00
0072 CFE4 FFD9 00897         MOVFF   PREINC1, FSR2L
0076 0012      00898         RETURN  
               00899 
               00900 ; ; Starting pCode block
0078 00901 __str_0:
0078 3025 6432 00902         DB      0x25, 0x30, 0x32, 0x64, 0x3a, 0x25, 0x30, 0x32, 0x64, 0x3a, 0x25, 0x30
     253A 3230 
     3A64 3025 
0084 6432 0000 00903         DB      0x32, 0x64, 0x00
               00904 
               00905 
               00906 ; Statistics:
               00907 ; code size:     2108 (0x083c) bytes ( 1.61%)
               00908 ;                1054 (0x041e) words
               00909 ; udata size:      32 (0x0020) bytes ( 0.83%)
               00910 ; access size:     11 (0x000b) bytes
               00911 
               00912 
gpasm-0.13.7 beta               objects/newtime.asm11-15-2013  19:15:36         PAGE 18


SYMBOL TABLE
  LABEL                             VALUE 

FSR0L                             00000FE9
FSR1L                             00000FE1
FSR2L                             00000FD9
PLUSW2                            00000FDB
POSTDEC1                          00000FE5
PREINC1                           00000FE4
PRODH                             00000FF4
PRODL                             00000FF3
STATUS                            00000FD8
WREG                              00000FE8
_00132_DS_                        0000009A
_00139_DS_                        0000009A
_00155_DS_                        000000B6
_00157_DS_                        00000114
_00159_DS_                        0000014E
_00160_DS_                        00000152
_00166_DS_                        000000B0
_00168_DS_                        0000010E
_00170_DS_                        00000148
__18F97J60                        00000001
__divsint                         00000000
__gptrget2                        00000000
__gptrput2                        00000000
__modsint                         00000000
__str_0                           00000078
_add_hour                         00000000
_add_minute                       00000000
_add_second                       00000000
_heap                             00000000
_malloc                           00000000
_set_hours                        00000000
_set_minutes                      00000000
_set_seconds                      00000000
_sprintf                          00000000
_stdin                            00000000
_stdout                           00000000
_time_create                      00000000
_time_equals                      00000000
_time_print                       00000000
_time_set                         00000000
r0x00                             00000000
r0x01                             00000001
r0x02                             00000002
r0x03                             00000003
r0x04                             00000004
r0x05                             00000005
r0x06                             00000006
r0x07                             00000007
r0x08                             00000008
r0x09                             00000009
r0x0a                             0000000A


Errors   :       0
Warnings :       0 reported,       0 suppressed
Messages :       0 reported,       0 suppressed

