gpasm-0.13.7 beta               objects/time.asm11-15-2013  11:46:14         PAGE  1


LOC  OBJECT CODE     LINE SOURCE TEXT
  VALUE
 
               00001 ;--------------------------------------------------------
               00002 ; File Created by SDCC : free open source ANSI-C Compiler
               00003 ; Version 2.9.4 #5595 (Nov 14 2013) (UNIX)
               00004 ; This file was generated Fri Nov 15 11:46:14 2013
               00005 ;--------------------------------------------------------
               00006 ; PIC16 port for the Microchip 16-bit core micros
               00007 ;--------------------------------------------------------
               00008         list    p=18f97j60
               00009 
               00010         radix dec
               00011 
               00012 ;--------------------------------------------------------
               00013 ; public variables in this module
               00014 ;--------------------------------------------------------
               00015         global _get_hours
               00016         global _get_minutes
               00017         global _get_seconds
               00018         global _time2string
               00019         global _to_double_digits
               00020         global _set_time
               00021         global _seconds_since_midnight
               00022 
               00023 ;--------------------------------------------------------
               00024 ; extern variables in this module
               00025 ;--------------------------------------------------------
               00026         extern __gptrget1
               00027         extern _stdin
               00028         extern _stdout
               00029         extern _sprintf
               00030         extern __divslong
               00031         extern __mullong
               00032         extern __divsint
               00033 ;--------------------------------------------------------
               00034 ;       Equates to used internal registers
               00035 ;--------------------------------------------------------
  00000FD8     00036 STATUS  equ     0xfd8
  00000FE8     00037 WREG    equ     0xfe8
  00000FE9     00038 FSR0L   equ     0xfe9
  00000FE1     00039 FSR1L   equ     0xfe1
  00000FD9     00040 FSR2L   equ     0xfd9
  00000FE5     00041 POSTDEC1        equ     0xfe5
  00000FE4     00042 PREINC1 equ     0xfe4
  00000FDB     00043 PLUSW2  equ     0xfdb
  00000FF3     00044 PRODL   equ     0xff3
  00000FF4     00045 PRODH   equ     0xff4
               00046 
               00047 
               00048         idata
               00049 _seconds_since_midnight db      0x00, 0x00, 0x00, 0x00
               00050 
               00051 
               00052 ; Internal registers
               00053 .registers      udata_ovr       0x0000
               00054 r0x00   res     1
gpasm-0.13.7 beta               objects/time.asm11-15-2013  11:46:14         PAGE  2


LOC  OBJECT CODE     LINE SOURCE TEXT
  VALUE
 
               00055 r0x01   res     1
               00056 r0x02   res     1
               00057 r0x03   res     1
               00058 r0x04   res     1
               00059 r0x05   res     1
               00060 r0x06   res     1
               00061 r0x07   res     1
               00062 r0x08   res     1
               00063 r0x09   res     1
               00064 
               00065 udata_time_0    udata
               00066 _time2string_string_1_1 res     9
               00067 
               00068 udata_time_1    udata
               00069 _to_double_digits_buffer_1_1    res     3
               00070 
               00071 ;--------------------------------------------------------
               00072 ; global & static initialisations
               00073 ;--------------------------------------------------------
               00074 ; I code from now on!
               00075 ; ; Starting pCode block
               00076 S_time__set_time        code
0000 00077 _set_time:
               00078 ;       .line   55; src/time.c  int set_time(int hours, int minutes, int seconds){
0000 CFD9 FFE5 00079         MOVFF   FSR2L, POSTDEC1
0004 CFE1 FFD9 00080         MOVFF   FSR1L, FSR2L
0008 C000 FFE5 00081         MOVFF   r0x00, POSTDEC1
000C C000 FFE5 00082         MOVFF   r0x01, POSTDEC1
0010 C000 FFE5 00083         MOVFF   r0x02, POSTDEC1
0014 C000 FFE5 00084         MOVFF   r0x03, POSTDEC1
0018 C000 FFE5 00085         MOVFF   r0x04, POSTDEC1
001C C000 FFE5 00086         MOVFF   r0x05, POSTDEC1
0020 C000 FFE5 00087         MOVFF   r0x06, POSTDEC1
0024 C000 FFE5 00088         MOVFF   r0x07, POSTDEC1
0028 C000 FFE5 00089         MOVFF   r0x08, POSTDEC1
002C C000 FFE5 00090         MOVFF   r0x09, POSTDEC1
0030 0E02      00091         MOVLW   0x02
0032 CFDB F000 00092         MOVFF   PLUSW2, r0x00
0036 0E03      00093         MOVLW   0x03
0038 CFDB F000 00094         MOVFF   PLUSW2, r0x01
003C 0E04      00095         MOVLW   0x04
003E CFDB F000 00096         MOVFF   PLUSW2, r0x02
0042 0E05      00097         MOVLW   0x05
0044 CFDB F000 00098         MOVFF   PLUSW2, r0x03
0048 0E06      00099         MOVLW   0x06
004A CFDB F000 00100         MOVFF   PLUSW2, r0x04
004E 0E07      00101         MOVLW   0x07
0050 CFDB F000 00102         MOVFF   PLUSW2, r0x05
               00103 ;       .line   56; src/time.c  if(hours < 0 || hours >= 24)
0054 80D8      00104         BSF     STATUS, 0
0056 AE00      00105         BTFSS   r0x01, 7
0058 90D8      00106         BCF     STATUS, 0
005A E200      00107         BC      _00130_DS_
005C 5000      00108         MOVF    r0x01, W
gpasm-0.13.7 beta               objects/time.asm11-15-2013  11:46:14         PAGE  3


LOC  OBJECT CODE     LINE SOURCE TEXT
  VALUE
 
005E 0F80      00109         ADDLW   0x80
0060 0F80      00110         ADDLW   0x80
0062 E100      00111         BNZ     _00144_DS_
0064 0E18      00112         MOVLW   0x18
0066 5C00      00113         SUBWF   r0x00, W
0068 00114 _00144_DS_:
0068 E300      00115         BNC     _00131_DS_
006A 00116 _00130_DS_:
               00117 ;       .line   57; src/time.c  return ERROR_HOURS;
006A 68F3      00118         SETF    PRODL
006C 68E8      00119         SETF    WREG
006E D000      00120         BRA     _00139_DS_
0070 00121 _00131_DS_:
               00122 ;       .line   58; src/time.c  if(minutes < 0 || minutes >= 60)
0070 80D8      00123         BSF     STATUS, 0
0072 AE00      00124         BTFSS   r0x03, 7
0074 90D8      00125         BCF     STATUS, 0
0076 E200      00126         BC      _00133_DS_
0078 5000      00127         MOVF    r0x03, W
007A 0F80      00128         ADDLW   0x80
007C 0F80      00129         ADDLW   0x80
007E E100      00130         BNZ     _00145_DS_
0080 0E3C      00131         MOVLW   0x3c
0082 5C00      00132         SUBWF   r0x02, W
0084 00133 _00145_DS_:
0084 E300      00134         BNC     _00134_DS_
0086 00135 _00133_DS_:
               00136 ;       .line   59; src/time.c  return ERROR_MINS;
0086 68F3      00137         SETF    PRODL
0088 0EFE      00138         MOVLW   0xfe
008A D000      00139         BRA     _00139_DS_
008C 00140 _00134_DS_:
               00141 ;       .line   60; src/time.c  if(seconds < 0 || seconds >= 60)
008C 80D8      00142         BSF     STATUS, 0
008E AE00      00143         BTFSS   r0x05, 7
0090 90D8      00144         BCF     STATUS, 0
0092 E200      00145         BC      _00136_DS_
0094 5000      00146         MOVF    r0x05, W
0096 0F80      00147         ADDLW   0x80
0098 0F80      00148         ADDLW   0x80
009A E100      00149         BNZ     _00146_DS_
009C 0E3C      00150         MOVLW   0x3c
009E 5C00      00151         SUBWF   r0x04, W
00A0 00152 _00146_DS_:
00A0 E300      00153         BNC     _00137_DS_
00A2 00154 _00136_DS_:
               00155 ;       .line   61; src/time.c  return ERROR_SECS;
00A2 68F3      00156         SETF    PRODL
00A4 0EFD      00157         MOVLW   0xfd
00A6 D000      00158         BRA     _00139_DS_
00A8 00159 _00137_DS_:
               00160 ;       .line   62; src/time.c  seconds_since_midnight = (long)seconds + (long)minutes * SEC_IN_MIN + (long)hours * SEC_IN_HOUR;
00A8 6AE8      00161         CLRF    WREG
00AA BE00      00162         BTFSC   r0x05, 7
gpasm-0.13.7 beta               objects/time.asm11-15-2013  11:46:14         PAGE  4


LOC  OBJECT CODE     LINE SOURCE TEXT
  VALUE
 
00AC 0EFF      00163         MOVLW   0xff
00AE 6E00      00164         MOVWF   r0x06
00B0 6E00      00165         MOVWF   r0x07
00B2 6AE8      00166         CLRF    WREG
00B4 BE00      00167         BTFSC   r0x03, 7
00B6 0EFF      00168         MOVLW   0xff
00B8 6E00      00169         MOVWF   r0x08
00BA 6E00      00170         MOVWF   r0x09
00BC 5000      00171         MOVF    r0x09, W
00BE 6EE5      00172         MOVWF   POSTDEC1
00C0 5000      00173         MOVF    r0x08, W
00C2 6EE5      00174         MOVWF   POSTDEC1
00C4 5000      00175         MOVF    r0x03, W
00C6 6EE5      00176         MOVWF   POSTDEC1
00C8 5000      00177         MOVF    r0x02, W
00CA 6EE5      00178         MOVWF   POSTDEC1
00CC 0E00      00179         MOVLW   0x00
00CE 6EE5      00180         MOVWF   POSTDEC1
00D0 0E00      00181         MOVLW   0x00
00D2 6EE5      00182         MOVWF   POSTDEC1
00D4 0E00      00183         MOVLW   0x00
00D6 6EE5      00184         MOVWF   POSTDEC1
00D8 0E3C      00185         MOVLW   0x3c
00DA 6EE5      00186         MOVWF   POSTDEC1
00DC EC00 F000 00187         CALL    __mullong
00E0 6E00      00188         MOVWF   r0x02
00E2 CFF3 F000 00189         MOVFF   PRODL, r0x03
00E6 CFF4 F000 00190         MOVFF   PRODH, r0x08
00EA CFE9 F000 00191         MOVFF   FSR0L, r0x09
00EE 0E08      00192         MOVLW   0x08
00F0 26E1      00193         ADDWF   FSR1L, F
00F2 5000      00194         MOVF    r0x02, W
00F4 2600      00195         ADDWF   r0x04, F
00F6 5000      00196         MOVF    r0x03, W
00F8 2200      00197         ADDWFC  r0x05, F
00FA 5000      00198         MOVF    r0x08, W
00FC 2200      00199         ADDWFC  r0x06, F
00FE 5000      00200         MOVF    r0x09, W
0100 2200      00201         ADDWFC  r0x07, F
0102 6AE8      00202         CLRF    WREG
0104 BE00      00203         BTFSC   r0x01, 7
0106 0EFF      00204         MOVLW   0xff
0108 6E00      00205         MOVWF   r0x02
010A 6E00      00206         MOVWF   r0x03
010C 5000      00207         MOVF    r0x03, W
010E 6EE5      00208         MOVWF   POSTDEC1
0110 5000      00209         MOVF    r0x02, W
0112 6EE5      00210         MOVWF   POSTDEC1
0114 5000      00211         MOVF    r0x01, W
0116 6EE5      00212         MOVWF   POSTDEC1
0118 5000      00213         MOVF    r0x00, W
011A 6EE5      00214         MOVWF   POSTDEC1
011C 0E00      00215         MOVLW   0x00
011E 6EE5      00216         MOVWF   POSTDEC1
gpasm-0.13.7 beta               objects/time.asm11-15-2013  11:46:14         PAGE  5


LOC  OBJECT CODE     LINE SOURCE TEXT
  VALUE
 
0120 0E00      00217         MOVLW   0x00
0122 6EE5      00218         MOVWF   POSTDEC1
0124 0E0E      00219         MOVLW   0x0e
0126 6EE5      00220         MOVWF   POSTDEC1
0128 0E10      00221         MOVLW   0x10
012A 6EE5      00222         MOVWF   POSTDEC1
012C EC00 F000 00223         CALL    __mullong
0130 6E00      00224         MOVWF   r0x00
0132 CFF3 F000 00225         MOVFF   PRODL, r0x01
0136 CFF4 F000 00226         MOVFF   PRODH, r0x02
013A CFE9 F000 00227         MOVFF   FSR0L, r0x03
013E 0E08      00228         MOVLW   0x08
0140 26E1      00229         ADDWF   FSR1L, F
0142 5000      00230         MOVF    r0x00, W
0144 2400      00231         ADDWF   r0x04, W
0146 0000      00232         BANKSEL _seconds_since_midnight
0148 6F00      00233         MOVWF   _seconds_since_midnight, B
014A 5000      00234         MOVF    r0x01, W
014C 2000      00235         ADDWFC  r0x05, W
014E 0000      00236         BANKSEL (_seconds_since_midnight + 1)
0150 6F00      00237         MOVWF   (_seconds_since_midnight + 1), B
0152 5000      00238         MOVF    r0x02, W
0154 2000      00239         ADDWFC  r0x06, W
0156 0000      00240         BANKSEL (_seconds_since_midnight + 2)
0158 6F00      00241         MOVWF   (_seconds_since_midnight + 2), B
015A 5000      00242         MOVF    r0x03, W
015C 2000      00243         ADDWFC  r0x07, W
015E 0000      00244         BANKSEL (_seconds_since_midnight + 3)
0160 6F00      00245         MOVWF   (_seconds_since_midnight + 3), B
               00246 ;       .line   63; src/time.c  return 0;
0162 6AF3      00247         CLRF    PRODL
0164 6AE8      00248         CLRF    WREG
0166 00249 _00139_DS_:
0166 CFE4 F000 00250         MOVFF   PREINC1, r0x09
016A CFE4 F000 00251         MOVFF   PREINC1, r0x08
016E CFE4 F000 00252         MOVFF   PREINC1, r0x07
0172 CFE4 F000 00253         MOVFF   PREINC1, r0x06
0176 CFE4 F000 00254         MOVFF   PREINC1, r0x05
017A CFE4 F000 00255         MOVFF   PREINC1, r0x04
017E CFE4 F000 00256         MOVFF   PREINC1, r0x03
0182 CFE4 F000 00257         MOVFF   PREINC1, r0x02
0186 CFE4 F000 00258         MOVFF   PREINC1, r0x01
018A CFE4 F000 00259         MOVFF   PREINC1, r0x00
018E CFE4 FFD9 00260         MOVFF   PREINC1, FSR2L
0192 0012      00261         RETURN  
               00262 
               00263 ; ; Starting pCode block
               00264 S_time__to_double_digits        code
0000 00265 _to_double_digits:
               00266 ;       .line   43; src/time.c  char* to_double_digits(long value){
0000 CFD9 FFE5 00267         MOVFF   FSR2L, POSTDEC1
0004 CFE1 FFD9 00268         MOVFF   FSR1L, FSR2L
0008 C000 FFE5 00269         MOVFF   r0x00, POSTDEC1
000C C000 FFE5 00270         MOVFF   r0x01, POSTDEC1
gpasm-0.13.7 beta               objects/time.asm11-15-2013  11:46:14         PAGE  6


LOC  OBJECT CODE     LINE SOURCE TEXT
  VALUE
 
0010 C000 FFE5 00271         MOVFF   r0x02, POSTDEC1
0014 C000 FFE5 00272         MOVFF   r0x03, POSTDEC1
0018 C000 FFE5 00273         MOVFF   r0x04, POSTDEC1
001C C000 FFE5 00274         MOVFF   r0x05, POSTDEC1
0020 C000 FFE5 00275         MOVFF   r0x06, POSTDEC1
0024 0E02      00276         MOVLW   0x02
0026 CFDB F000 00277         MOVFF   PLUSW2, r0x00
002A 0E03      00278         MOVLW   0x03
002C CFDB F000 00279         MOVFF   PLUSW2, r0x01
0030 0E04      00280         MOVLW   0x04
0032 CFDB F000 00281         MOVFF   PLUSW2, r0x02
0036 0E05      00282         MOVLW   0x05
0038 CFDB F000 00283         MOVFF   PLUSW2, r0x03
               00284 ;       .line   45; src/time.c  sprintf(buffer, "%02lu", value);
003C 0E00      00285         MOVLW   HIGH(_to_double_digits_buffer_1_1)
003E 6E00      00286         MOVWF   r0x05
0040 0E00      00287         MOVLW   LOW(_to_double_digits_buffer_1_1)
0042 6E00      00288         MOVWF   r0x04
0044 0E80      00289         MOVLW   0x80
0046 6E00      00290         MOVWF   r0x06
0048 5000      00291         MOVF    r0x03, W
004A 6EE5      00292         MOVWF   POSTDEC1
004C 5000      00293         MOVF    r0x02, W
004E 6EE5      00294         MOVWF   POSTDEC1
0050 5000      00295         MOVF    r0x01, W
0052 6EE5      00296         MOVWF   POSTDEC1
0054 5000      00297         MOVF    r0x00, W
0056 6EE5      00298         MOVWF   POSTDEC1
0058 0E00      00299         MOVLW   UPPER(__str_0)
005A 6EE5      00300         MOVWF   POSTDEC1
005C 0E00      00301         MOVLW   HIGH(__str_0)
005E 6EE5      00302         MOVWF   POSTDEC1
0060 0E00      00303         MOVLW   LOW(__str_0)
0062 6EE5      00304         MOVWF   POSTDEC1
0064 5000      00305         MOVF    r0x06, W
0066 6EE5      00306         MOVWF   POSTDEC1
0068 5000      00307         MOVF    r0x05, W
006A 6EE5      00308         MOVWF   POSTDEC1
006C 5000      00309         MOVF    r0x04, W
006E 6EE5      00310         MOVWF   POSTDEC1
0070 EC00 F000 00311         CALL    _sprintf
0074 0E0A      00312         MOVLW   0x0a
0076 26E1      00313         ADDWF   FSR1L, F
               00314 ;       .line   46; src/time.c  return buffer;
0078 0E00      00315         MOVLW   HIGH(_to_double_digits_buffer_1_1)
007A 6E00      00316         MOVWF   r0x01
007C 0E00      00317         MOVLW   LOW(_to_double_digits_buffer_1_1)
007E 6E00      00318         MOVWF   r0x00
0080 0E80      00319         MOVLW   0x80
0082 6E00      00320         MOVWF   r0x02
0084 C000 FFF4 00321         MOVFF   r0x02, PRODH
0088 C000 FFF3 00322         MOVFF   r0x01, PRODL
008C 5000      00323         MOVF    r0x00, W
008E CFE4 F000 00324         MOVFF   PREINC1, r0x06
gpasm-0.13.7 beta               objects/time.asm11-15-2013  11:46:14         PAGE  7


LOC  OBJECT CODE     LINE SOURCE TEXT
  VALUE
 
0092 CFE4 F000 00325         MOVFF   PREINC1, r0x05
0096 CFE4 F000 00326         MOVFF   PREINC1, r0x04
009A CFE4 F000 00327         MOVFF   PREINC1, r0x03
009E CFE4 F000 00328         MOVFF   PREINC1, r0x02
00A2 CFE4 F000 00329         MOVFF   PREINC1, r0x01
00A6 CFE4 F000 00330         MOVFF   PREINC1, r0x00
00AA CFE4 FFD9 00331         MOVFF   PREINC1, FSR2L
00AE 0012      00332         RETURN  
               00333 
               00334 ; ; Starting pCode block
               00335 S_time__time2string     code
0000 00336 _time2string:
               00337 ;       .line   26; src/time.c  char* time2string(void){
0000 CFD9 FFE5 00338         MOVFF   FSR2L, POSTDEC1
0004 CFE1 FFD9 00339         MOVFF   FSR1L, FSR2L
0008 C000 FFE5 00340         MOVFF   r0x00, POSTDEC1
000C C000 FFE5 00341         MOVFF   r0x01, POSTDEC1
0010 C000 FFE5 00342         MOVFF   r0x02, POSTDEC1
0014 C000 FFE5 00343         MOVFF   r0x03, POSTDEC1
               00344 ;       .line   28; src/time.c  string[0] = to_double_digits(get_hours())[0];
0018 EC00 F000 00345         CALL    _get_hours
001C 6E00      00346         MOVWF   r0x00
001E CFF3 F000 00347         MOVFF   PRODL, r0x01
0022 CFF4 F000 00348         MOVFF   PRODH, r0x02
0026 CFE9 F000 00349         MOVFF   FSR0L, r0x03
002A 5000      00350         MOVF    r0x03, W
002C 6EE5      00351         MOVWF   POSTDEC1
002E 5000      00352         MOVF    r0x02, W
0030 6EE5      00353         MOVWF   POSTDEC1
0032 5000      00354         MOVF    r0x01, W
0034 6EE5      00355         MOVWF   POSTDEC1
0036 5000      00356         MOVF    r0x00, W
0038 6EE5      00357         MOVWF   POSTDEC1
003A EC00 F000 00358         CALL    _to_double_digits
003E 6E00      00359         MOVWF   r0x00
0040 CFF3 F000 00360         MOVFF   PRODL, r0x01
0044 CFF4 F000 00361         MOVFF   PRODH, r0x02
0048 0E04      00362         MOVLW   0x04
004A 26E1      00363         ADDWF   FSR1L, F
004C C000 FFE9 00364         MOVFF   r0x00, FSR0L
0050 C000 FFF3 00365         MOVFF   r0x01, PRODL
0054 5000      00366         MOVF    r0x02, W
0056 EC00 F000 00367         CALL    __gptrget1
005A 6E00      00368         MOVWF   r0x00
005C 5000      00369         MOVF    r0x00, W
005E 0000      00370         BANKSEL _time2string_string_1_1
0060 6F00      00371         MOVWF   _time2string_string_1_1, B
               00372 ;       .line   29; src/time.c  string[1] = to_double_digits(get_hours())[1];
0062 EC00 F000 00373         CALL    _get_hours
0066 6E00      00374         MOVWF   r0x00
0068 CFF3 F000 00375         MOVFF   PRODL, r0x01
006C CFF4 F000 00376         MOVFF   PRODH, r0x02
0070 CFE9 F000 00377         MOVFF   FSR0L, r0x03
0074 5000      00378         MOVF    r0x03, W
gpasm-0.13.7 beta               objects/time.asm11-15-2013  11:46:14         PAGE  8


LOC  OBJECT CODE     LINE SOURCE TEXT
  VALUE
 
0076 6EE5      00379         MOVWF   POSTDEC1
0078 5000      00380         MOVF    r0x02, W
007A 6EE5      00381         MOVWF   POSTDEC1
007C 5000      00382         MOVF    r0x01, W
007E 6EE5      00383         MOVWF   POSTDEC1
0080 5000      00384         MOVF    r0x00, W
0082 6EE5      00385         MOVWF   POSTDEC1
0084 EC00 F000 00386         CALL    _to_double_digits
0088 6E00      00387         MOVWF   r0x00
008A CFF3 F000 00388         MOVFF   PRODL, r0x01
008E CFF4 F000 00389         MOVFF   PRODH, r0x02
0092 0E04      00390         MOVLW   0x04
0094 26E1      00391         ADDWF   FSR1L, F
0096 2A00      00392         INCF    r0x00, F
0098 B0D8      00393         BTFSC   STATUS, 0
009A 2A00      00394         INCF    r0x01, F
009C B0D8      00395         BTFSC   STATUS, 0
009E 2A00      00396         INCF    r0x02, F
00A0 C000 FFE9 00397         MOVFF   r0x00, FSR0L
00A4 C000 FFF3 00398         MOVFF   r0x01, PRODL
00A8 5000      00399         MOVF    r0x02, W
00AA EC00 F000 00400         CALL    __gptrget1
00AE 6E00      00401         MOVWF   r0x00
00B0 5000      00402         MOVF    r0x00, W
00B2 0000      00403         BANKSEL (_time2string_string_1_1 + 1)
00B4 6F00      00404         MOVWF   (_time2string_string_1_1 + 1), B
               00405 ;       .line   30; src/time.c  string[2] = ':';
00B6 0E3A      00406         MOVLW   0x3a
00B8 0000      00407         BANKSEL (_time2string_string_1_1 + 2)
00BA 6F00      00408         MOVWF   (_time2string_string_1_1 + 2), B
               00409 ;       .line   31; src/time.c  string[3] = to_double_digits(get_minutes())[0];
00BC EC00 F000 00410         CALL    _get_minutes
00C0 6E00      00411         MOVWF   r0x00
00C2 CFF3 F000 00412         MOVFF   PRODL, r0x01
00C6 CFF4 F000 00413         MOVFF   PRODH, r0x02
00CA CFE9 F000 00414         MOVFF   FSR0L, r0x03
00CE 5000      00415         MOVF    r0x03, W
00D0 6EE5      00416         MOVWF   POSTDEC1
00D2 5000      00417         MOVF    r0x02, W
00D4 6EE5      00418         MOVWF   POSTDEC1
00D6 5000      00419         MOVF    r0x01, W
00D8 6EE5      00420         MOVWF   POSTDEC1
00DA 5000      00421         MOVF    r0x00, W
00DC 6EE5      00422         MOVWF   POSTDEC1
00DE EC00 F000 00423         CALL    _to_double_digits
00E2 6E00      00424         MOVWF   r0x00
00E4 CFF3 F000 00425         MOVFF   PRODL, r0x01
00E8 CFF4 F000 00426         MOVFF   PRODH, r0x02
00EC 0E04      00427         MOVLW   0x04
00EE 26E1      00428         ADDWF   FSR1L, F
00F0 C000 FFE9 00429         MOVFF   r0x00, FSR0L
00F4 C000 FFF3 00430         MOVFF   r0x01, PRODL
00F8 5000      00431         MOVF    r0x02, W
00FA EC00 F000 00432         CALL    __gptrget1
gpasm-0.13.7 beta               objects/time.asm11-15-2013  11:46:14         PAGE  9


LOC  OBJECT CODE     LINE SOURCE TEXT
  VALUE
 
00FE 6E00      00433         MOVWF   r0x00
0100 5000      00434         MOVF    r0x00, W
0102 0000      00435         BANKSEL (_time2string_string_1_1 + 3)
0104 6F00      00436         MOVWF   (_time2string_string_1_1 + 3), B
               00437 ;       .line   32; src/time.c  string[4] = to_double_digits(get_minutes())[1];
0106 EC00 F000 00438         CALL    _get_minutes
010A 6E00      00439         MOVWF   r0x00
010C CFF3 F000 00440         MOVFF   PRODL, r0x01
0110 CFF4 F000 00441         MOVFF   PRODH, r0x02
0114 CFE9 F000 00442         MOVFF   FSR0L, r0x03
0118 5000      00443         MOVF    r0x03, W
011A 6EE5      00444         MOVWF   POSTDEC1
011C 5000      00445         MOVF    r0x02, W
011E 6EE5      00446         MOVWF   POSTDEC1
0120 5000      00447         MOVF    r0x01, W
0122 6EE5      00448         MOVWF   POSTDEC1
0124 5000      00449         MOVF    r0x00, W
0126 6EE5      00450         MOVWF   POSTDEC1
0128 EC00 F000 00451         CALL    _to_double_digits
012C 6E00      00452         MOVWF   r0x00
012E CFF3 F000 00453         MOVFF   PRODL, r0x01
0132 CFF4 F000 00454         MOVFF   PRODH, r0x02
0136 0E04      00455         MOVLW   0x04
0138 26E1      00456         ADDWF   FSR1L, F
013A 2A00      00457         INCF    r0x00, F
013C B0D8      00458         BTFSC   STATUS, 0
013E 2A00      00459         INCF    r0x01, F
0140 B0D8      00460         BTFSC   STATUS, 0
0142 2A00      00461         INCF    r0x02, F
0144 C000 FFE9 00462         MOVFF   r0x00, FSR0L
0148 C000 FFF3 00463         MOVFF   r0x01, PRODL
014C 5000      00464         MOVF    r0x02, W
014E EC00 F000 00465         CALL    __gptrget1
0152 6E00      00466         MOVWF   r0x00
0154 5000      00467         MOVF    r0x00, W
0156 0000      00468         BANKSEL (_time2string_string_1_1 + 4)
0158 6F00      00469         MOVWF   (_time2string_string_1_1 + 4), B
               00470 ;       .line   33; src/time.c  string[5] = ':';
015A 0E3A      00471         MOVLW   0x3a
015C 0000      00472         BANKSEL (_time2string_string_1_1 + 5)
015E 6F00      00473         MOVWF   (_time2string_string_1_1 + 5), B
               00474 ;       .line   34; src/time.c  string[6] = to_double_digits(get_seconds())[0];
0160 EC00 F000 00475         CALL    _get_seconds
0164 6E00      00476         MOVWF   r0x00
0166 CFF3 F000 00477         MOVFF   PRODL, r0x01
016A CFF4 F000 00478         MOVFF   PRODH, r0x02
016E CFE9 F000 00479         MOVFF   FSR0L, r0x03
0172 5000      00480         MOVF    r0x03, W
0174 6EE5      00481         MOVWF   POSTDEC1
0176 5000      00482         MOVF    r0x02, W
0178 6EE5      00483         MOVWF   POSTDEC1
017A 5000      00484         MOVF    r0x01, W
017C 6EE5      00485         MOVWF   POSTDEC1
017E 5000      00486         MOVF    r0x00, W
gpasm-0.13.7 beta               objects/time.asm11-15-2013  11:46:14         PAGE 10


LOC  OBJECT CODE     LINE SOURCE TEXT
  VALUE
 
0180 6EE5      00487         MOVWF   POSTDEC1
0182 EC00 F000 00488         CALL    _to_double_digits
0186 6E00      00489         MOVWF   r0x00
0188 CFF3 F000 00490         MOVFF   PRODL, r0x01
018C CFF4 F000 00491         MOVFF   PRODH, r0x02
0190 0E04      00492         MOVLW   0x04
0192 26E1      00493         ADDWF   FSR1L, F
0194 C000 FFE9 00494         MOVFF   r0x00, FSR0L
0198 C000 FFF3 00495         MOVFF   r0x01, PRODL
019C 5000      00496         MOVF    r0x02, W
019E EC00 F000 00497         CALL    __gptrget1
01A2 6E00      00498         MOVWF   r0x00
01A4 5000      00499         MOVF    r0x00, W
01A6 0000      00500         BANKSEL (_time2string_string_1_1 + 6)
01A8 6F00      00501         MOVWF   (_time2string_string_1_1 + 6), B
               00502 ;       .line   35; src/time.c  string[7] = to_double_digits(get_seconds())[1]; 
01AA EC00 F000 00503         CALL    _get_seconds
01AE 6E00      00504         MOVWF   r0x00
01B0 CFF3 F000 00505         MOVFF   PRODL, r0x01
01B4 CFF4 F000 00506         MOVFF   PRODH, r0x02
01B8 CFE9 F000 00507         MOVFF   FSR0L, r0x03
01BC 5000      00508         MOVF    r0x03, W
01BE 6EE5      00509         MOVWF   POSTDEC1
01C0 5000      00510         MOVF    r0x02, W
01C2 6EE5      00511         MOVWF   POSTDEC1
01C4 5000      00512         MOVF    r0x01, W
01C6 6EE5      00513         MOVWF   POSTDEC1
01C8 5000      00514         MOVF    r0x00, W
01CA 6EE5      00515         MOVWF   POSTDEC1
01CC EC00 F000 00516         CALL    _to_double_digits
01D0 6E00      00517         MOVWF   r0x00
01D2 CFF3 F000 00518         MOVFF   PRODL, r0x01
01D6 CFF4 F000 00519         MOVFF   PRODH, r0x02
01DA 0E04      00520         MOVLW   0x04
01DC 26E1      00521         ADDWF   FSR1L, F
01DE 2A00      00522         INCF    r0x00, F
01E0 B0D8      00523         BTFSC   STATUS, 0
01E2 2A00      00524         INCF    r0x01, F
01E4 B0D8      00525         BTFSC   STATUS, 0
01E6 2A00      00526         INCF    r0x02, F
01E8 C000 FFE9 00527         MOVFF   r0x00, FSR0L
01EC C000 FFF3 00528         MOVFF   r0x01, PRODL
01F0 5000      00529         MOVF    r0x02, W
01F2 EC00 F000 00530         CALL    __gptrget1
01F6 6E00      00531         MOVWF   r0x00
01F8 5000      00532         MOVF    r0x00, W
01FA 0000      00533         BANKSEL (_time2string_string_1_1 + 7)
01FC 6F00      00534         MOVWF   (_time2string_string_1_1 + 7), B
01FE 0000      00535         BANKSEL (_time2string_string_1_1 + 8)
               00536 ;       .line   36; src/time.c  string[8] = '\0';
0200 6B00      00537         CLRF    (_time2string_string_1_1 + 8), B
               00538 ;       .line   37; src/time.c  return string;
0202 0E00      00539         MOVLW   HIGH(_time2string_string_1_1)
0204 6E00      00540         MOVWF   r0x01
gpasm-0.13.7 beta               objects/time.asm11-15-2013  11:46:14         PAGE 11


LOC  OBJECT CODE     LINE SOURCE TEXT
  VALUE
 
0206 0E00      00541         MOVLW   LOW(_time2string_string_1_1)
0208 6E00      00542         MOVWF   r0x00
020A 0E80      00543         MOVLW   0x80
020C 6E00      00544         MOVWF   r0x02
020E C000 FFF4 00545         MOVFF   r0x02, PRODH
0212 C000 FFF3 00546         MOVFF   r0x01, PRODL
0216 5000      00547         MOVF    r0x00, W
0218 CFE4 F000 00548         MOVFF   PREINC1, r0x03
021C CFE4 F000 00549         MOVFF   PREINC1, r0x02
0220 CFE4 F000 00550         MOVFF   PREINC1, r0x01
0224 CFE4 F000 00551         MOVFF   PREINC1, r0x00
0228 CFE4 FFD9 00552         MOVFF   PREINC1, FSR2L
022C 0012      00553         RETURN  
               00554 
               00555 ; ; Starting pCode block
               00556 S_time__get_seconds     code
0000 00557 _get_seconds:
               00558 ;       .line   17; src/time.c  long get_seconds(void){
0000 CFD9 FFE5 00559         MOVFF   FSR2L, POSTDEC1
0004 CFE1 FFD9 00560         MOVFF   FSR1L, FSR2L
0008 C000 FFE5 00561         MOVFF   r0x00, POSTDEC1
000C C000 FFE5 00562         MOVFF   r0x01, POSTDEC1
0010 C000 FFE5 00563         MOVFF   r0x02, POSTDEC1
0014 C000 FFE5 00564         MOVFF   r0x03, POSTDEC1
0018 C000 FFE5 00565         MOVFF   r0x04, POSTDEC1
001C C000 FFE5 00566         MOVFF   r0x05, POSTDEC1
0020 C000 FFE5 00567         MOVFF   r0x06, POSTDEC1
0024 C000 FFE5 00568         MOVFF   r0x07, POSTDEC1
               00569 ;       .line   18; src/time.c  long remaining_seconds = seconds_since_midnight - (get_hours() * SEC_IN_HOUR + get_minutes() * SEC_IN_MIN);
0028 EC00 F000 00570         CALL    _get_hours
002C 6E00      00571         MOVWF   r0x00
002E CFF3 F000 00572         MOVFF   PRODL, r0x01
0032 CFF4 F000 00573         MOVFF   PRODH, r0x02
0036 CFE9 F000 00574         MOVFF   FSR0L, r0x03
003A 5000      00575         MOVF    r0x03, W
003C 6EE5      00576         MOVWF   POSTDEC1
003E 5000      00577         MOVF    r0x02, W
0040 6EE5      00578         MOVWF   POSTDEC1
0042 5000      00579         MOVF    r0x01, W
0044 6EE5      00580         MOVWF   POSTDEC1
0046 5000      00581         MOVF    r0x00, W
0048 6EE5      00582         MOVWF   POSTDEC1
004A 0E00      00583         MOVLW   0x00
004C 6EE5      00584         MOVWF   POSTDEC1
004E 0E00      00585         MOVLW   0x00
0050 6EE5      00586         MOVWF   POSTDEC1
0052 0E0E      00587         MOVLW   0x0e
0054 6EE5      00588         MOVWF   POSTDEC1
0056 0E10      00589         MOVLW   0x10
0058 6EE5      00590         MOVWF   POSTDEC1
005A EC00 F000 00591         CALL    __mullong
005E 6E00      00592         MOVWF   r0x00
0060 CFF3 F000 00593         MOVFF   PRODL, r0x01
0064 CFF4 F000 00594         MOVFF   PRODH, r0x02
gpasm-0.13.7 beta               objects/time.asm11-15-2013  11:46:14         PAGE 12


LOC  OBJECT CODE     LINE SOURCE TEXT
  VALUE
 
0068 CFE9 F000 00595         MOVFF   FSR0L, r0x03
006C 0E08      00596         MOVLW   0x08
006E 26E1      00597         ADDWF   FSR1L, F
0070 EC00 F000 00598         CALL    _get_minutes
0074 6E00      00599         MOVWF   r0x04
0076 CFF3 F000 00600         MOVFF   PRODL, r0x05
007A CFF4 F000 00601         MOVFF   PRODH, r0x06
007E CFE9 F000 00602         MOVFF   FSR0L, r0x07
0082 5000      00603         MOVF    r0x07, W
0084 6EE5      00604         MOVWF   POSTDEC1
0086 5000      00605         MOVF    r0x06, W
0088 6EE5      00606         MOVWF   POSTDEC1
008A 5000      00607         MOVF    r0x05, W
008C 6EE5      00608         MOVWF   POSTDEC1
008E 5000      00609         MOVF    r0x04, W
0090 6EE5      00610         MOVWF   POSTDEC1
0092 0E00      00611         MOVLW   0x00
0094 6EE5      00612         MOVWF   POSTDEC1
0096 0E00      00613         MOVLW   0x00
0098 6EE5      00614         MOVWF   POSTDEC1
009A 0E00      00615         MOVLW   0x00
009C 6EE5      00616         MOVWF   POSTDEC1
009E 0E3C      00617         MOVLW   0x3c
00A0 6EE5      00618         MOVWF   POSTDEC1
00A2 EC00 F000 00619         CALL    __mullong
00A6 6E00      00620         MOVWF   r0x04
00A8 CFF3 F000 00621         MOVFF   PRODL, r0x05
00AC CFF4 F000 00622         MOVFF   PRODH, r0x06
00B0 CFE9 F000 00623         MOVFF   FSR0L, r0x07
00B4 0E08      00624         MOVLW   0x08
00B6 26E1      00625         ADDWF   FSR1L, F
00B8 5000      00626         MOVF    r0x04, W
00BA 2600      00627         ADDWF   r0x00, F
00BC 5000      00628         MOVF    r0x05, W
00BE 2200      00629         ADDWFC  r0x01, F
00C0 5000      00630         MOVF    r0x06, W
00C2 2200      00631         ADDWFC  r0x02, F
00C4 5000      00632         MOVF    r0x07, W
00C6 2200      00633         ADDWFC  r0x03, F
00C8 5000      00634         MOVF    r0x00, W
00CA 0000      00635         BANKSEL _seconds_since_midnight
00CC 5D00      00636         SUBWF   _seconds_since_midnight, W, B
00CE 6E00      00637         MOVWF   r0x00
00D0 5000      00638         MOVF    r0x01, W
00D2 0000      00639         BANKSEL (_seconds_since_midnight + 1)
00D4 5900      00640         SUBWFB  (_seconds_since_midnight + 1), W, B
00D6 6E00      00641         MOVWF   r0x01
00D8 5000      00642         MOVF    r0x02, W
00DA 0000      00643         BANKSEL (_seconds_since_midnight + 2)
00DC 5900      00644         SUBWFB  (_seconds_since_midnight + 2), W, B
00DE 6E00      00645         MOVWF   r0x02
00E0 5000      00646         MOVF    r0x03, W
00E2 0000      00647         BANKSEL (_seconds_since_midnight + 3)
00E4 5900      00648         SUBWFB  (_seconds_since_midnight + 3), W, B
gpasm-0.13.7 beta               objects/time.asm11-15-2013  11:46:14         PAGE 13


LOC  OBJECT CODE     LINE SOURCE TEXT
  VALUE
 
00E6 6E00      00649         MOVWF   r0x03
               00650 ;       .line   19; src/time.c  return remaining_seconds;
00E8 C000 FFE9 00651         MOVFF   r0x03, FSR0L
00EC C000 FFF4 00652         MOVFF   r0x02, PRODH
00F0 C000 FFF3 00653         MOVFF   r0x01, PRODL
00F4 5000      00654         MOVF    r0x00, W
00F6 CFE4 F000 00655         MOVFF   PREINC1, r0x07
00FA CFE4 F000 00656         MOVFF   PREINC1, r0x06
00FE CFE4 F000 00657         MOVFF   PREINC1, r0x05
0102 CFE4 F000 00658         MOVFF   PREINC1, r0x04
0106 CFE4 F000 00659         MOVFF   PREINC1, r0x03
010A CFE4 F000 00660         MOVFF   PREINC1, r0x02
010E CFE4 F000 00661         MOVFF   PREINC1, r0x01
0112 CFE4 F000 00662         MOVFF   PREINC1, r0x00
0116 CFE4 FFD9 00663         MOVFF   PREINC1, FSR2L
011A 0012      00664         RETURN  
               00665 
               00666 ; ; Starting pCode block
               00667 S_time__get_minutes     code
0000 00668 _get_minutes:
               00669 ;       .line   12; src/time.c  long get_minutes(void){
0000 CFD9 FFE5 00670         MOVFF   FSR2L, POSTDEC1
0004 CFE1 FFD9 00671         MOVFF   FSR1L, FSR2L
0008 C000 FFE5 00672         MOVFF   r0x00, POSTDEC1
000C C000 FFE5 00673         MOVFF   r0x01, POSTDEC1
0010 C000 FFE5 00674         MOVFF   r0x02, POSTDEC1
0014 C000 FFE5 00675         MOVFF   r0x03, POSTDEC1
               00676 ;       .line   13; src/time.c  int remaining_seconds = seconds_since_midnight - (get_hours() * SEC_IN_HOUR);
0018 EC00 F000 00677         CALL    _get_hours
001C 6E00      00678         MOVWF   r0x00
001E CFF3 F000 00679         MOVFF   PRODL, r0x01
0022 CFF4 F000 00680         MOVFF   PRODH, r0x02
0026 CFE9 F000 00681         MOVFF   FSR0L, r0x03
002A 5000      00682         MOVF    r0x03, W
002C 6EE5      00683         MOVWF   POSTDEC1
002E 5000      00684         MOVF    r0x02, W
0030 6EE5      00685         MOVWF   POSTDEC1
0032 5000      00686         MOVF    r0x01, W
0034 6EE5      00687         MOVWF   POSTDEC1
0036 5000      00688         MOVF    r0x00, W
0038 6EE5      00689         MOVWF   POSTDEC1
003A 0E00      00690         MOVLW   0x00
003C 6EE5      00691         MOVWF   POSTDEC1
003E 0E00      00692         MOVLW   0x00
0040 6EE5      00693         MOVWF   POSTDEC1
0042 0E0E      00694         MOVLW   0x0e
0044 6EE5      00695         MOVWF   POSTDEC1
0046 0E10      00696         MOVLW   0x10
0048 6EE5      00697         MOVWF   POSTDEC1
004A EC00 F000 00698         CALL    __mullong
004E 6E00      00699         MOVWF   r0x00
0050 CFF3 F000 00700         MOVFF   PRODL, r0x01
0054 CFF4 F000 00701         MOVFF   PRODH, r0x02
0058 CFE9 F000 00702         MOVFF   FSR0L, r0x03
gpasm-0.13.7 beta               objects/time.asm11-15-2013  11:46:14         PAGE 14


LOC  OBJECT CODE     LINE SOURCE TEXT
  VALUE
 
005C 0E08      00703         MOVLW   0x08
005E 26E1      00704         ADDWF   FSR1L, F
0060 5000      00705         MOVF    r0x00, W
0062 0000      00706         BANKSEL _seconds_since_midnight
0064 5D00      00707         SUBWF   _seconds_since_midnight, W, B
0066 6E00      00708         MOVWF   r0x00
0068 5000      00709         MOVF    r0x01, W
006A 0000      00710         BANKSEL (_seconds_since_midnight + 1)
006C 5900      00711         SUBWFB  (_seconds_since_midnight + 1), W, B
006E 6E00      00712         MOVWF   r0x01
0070 5000      00713         MOVF    r0x02, W
0072 0000      00714         BANKSEL (_seconds_since_midnight + 2)
0074 5900      00715         SUBWFB  (_seconds_since_midnight + 2), W, B
0076 6E00      00716         MOVWF   r0x02
0078 5000      00717         MOVF    r0x03, W
007A 0000      00718         BANKSEL (_seconds_since_midnight + 3)
007C 5900      00719         SUBWFB  (_seconds_since_midnight + 3), W, B
007E 6E00      00720         MOVWF   r0x03
               00721 ;       .line   14; src/time.c  return (remaining_seconds / SEC_IN_MIN);
0080 0E00      00722         MOVLW   0x00
0082 6EE5      00723         MOVWF   POSTDEC1
0084 0E3C      00724         MOVLW   0x3c
0086 6EE5      00725         MOVWF   POSTDEC1
0088 5000      00726         MOVF    r0x01, W
008A 6EE5      00727         MOVWF   POSTDEC1
008C 5000      00728         MOVF    r0x00, W
008E 6EE5      00729         MOVWF   POSTDEC1
0090 EC00 F000 00730         CALL    __divsint
0094 6E00      00731         MOVWF   r0x00
0096 CFF3 F000 00732         MOVFF   PRODL, r0x01
009A 0E04      00733         MOVLW   0x04
009C 26E1      00734         ADDWF   FSR1L, F
009E 6AE8      00735         CLRF    WREG
00A0 BE00      00736         BTFSC   r0x01, 7
00A2 0EFF      00737         MOVLW   0xff
00A4 6E00      00738         MOVWF   r0x02
00A6 6E00      00739         MOVWF   r0x03
00A8 C000 FFE9 00740         MOVFF   r0x03, FSR0L
00AC C000 FFF4 00741         MOVFF   r0x02, PRODH
00B0 C000 FFF3 00742         MOVFF   r0x01, PRODL
00B4 5000      00743         MOVF    r0x00, W
00B6 CFE4 F000 00744         MOVFF   PREINC1, r0x03
00BA CFE4 F000 00745         MOVFF   PREINC1, r0x02
00BE CFE4 F000 00746         MOVFF   PREINC1, r0x01
00C2 CFE4 F000 00747         MOVFF   PREINC1, r0x00
00C6 CFE4 FFD9 00748         MOVFF   PREINC1, FSR2L
00CA 0012      00749         RETURN  
               00750 
               00751 ; ; Starting pCode block
               00752 S_time__get_hours       code
0000 00753 _get_hours:
               00754 ;       .line   8; src/time.c   long get_hours(void){
0000 CFD9 FFE5 00755         MOVFF   FSR2L, POSTDEC1
0004 CFE1 FFD9 00756         MOVFF   FSR1L, FSR2L
gpasm-0.13.7 beta               objects/time.asm11-15-2013  11:46:14         PAGE 15


LOC  OBJECT CODE     LINE SOURCE TEXT
  VALUE
 
0008 C000 FFE5 00757         MOVFF   r0x00, POSTDEC1
000C C000 FFE5 00758         MOVFF   r0x01, POSTDEC1
0010 C000 FFE5 00759         MOVFF   r0x02, POSTDEC1
0014 C000 FFE5 00760         MOVFF   r0x03, POSTDEC1
               00761 ;       .line   9; src/time.c   return (seconds_since_midnight / SEC_IN_HOUR);
0018 0E00      00762         MOVLW   0x00
001A 6EE5      00763         MOVWF   POSTDEC1
001C 0E00      00764         MOVLW   0x00
001E 6EE5      00765         MOVWF   POSTDEC1
0020 0E0E      00766         MOVLW   0x0e
0022 6EE5      00767         MOVWF   POSTDEC1
0024 0E10      00768         MOVLW   0x10
0026 6EE5      00769         MOVWF   POSTDEC1
0028 0000      00770         BANKSEL (_seconds_since_midnight + 3)
002A 5100      00771         MOVF    (_seconds_since_midnight + 3), W, B
002C 6EE5      00772         MOVWF   POSTDEC1
002E 0000      00773         BANKSEL (_seconds_since_midnight + 2)
0030 5100      00774         MOVF    (_seconds_since_midnight + 2), W, B
0032 6EE5      00775         MOVWF   POSTDEC1
0034 0000      00776         BANKSEL (_seconds_since_midnight + 1)
0036 5100      00777         MOVF    (_seconds_since_midnight + 1), W, B
0038 6EE5      00778         MOVWF   POSTDEC1
003A 0000      00779         BANKSEL _seconds_since_midnight
003C 5100      00780         MOVF    _seconds_since_midnight, W, B
003E 6EE5      00781         MOVWF   POSTDEC1
0040 EC00 F000 00782         CALL    __divslong
0044 6E00      00783         MOVWF   r0x00
0046 CFF3 F000 00784         MOVFF   PRODL, r0x01
004A CFF4 F000 00785         MOVFF   PRODH, r0x02
004E CFE9 F000 00786         MOVFF   FSR0L, r0x03
0052 0E08      00787         MOVLW   0x08
0054 26E1      00788         ADDWF   FSR1L, F
0056 C000 FFE9 00789         MOVFF   r0x03, FSR0L
005A C000 FFF4 00790         MOVFF   r0x02, PRODH
005E C000 FFF3 00791         MOVFF   r0x01, PRODL
0062 5000      00792         MOVF    r0x00, W
0064 CFE4 F000 00793         MOVFF   PREINC1, r0x03
0068 CFE4 F000 00794         MOVFF   PREINC1, r0x02
006C CFE4 F000 00795         MOVFF   PREINC1, r0x01
0070 CFE4 F000 00796         MOVFF   PREINC1, r0x00
0074 CFE4 FFD9 00797         MOVFF   PREINC1, FSR2L
0078 0012      00798         RETURN  
               00799 
               00800 ; ; Starting pCode block
007A 00801 __str_0:
007A 3025 6C32 00802         DB      0x25, 0x30, 0x32, 0x6c, 0x75, 0x00
     0075      
               00803 
               00804 
               00805 ; Statistics:
               00806 ; code size:     1750 (0x06d6) bytes ( 1.34%)
               00807 ;                 875 (0x036b) words
               00808 ; udata size:      12 (0x000c) bytes ( 0.31%)
               00809 ; access size:     10 (0x000a) bytes
gpasm-0.13.7 beta               objects/time.asm11-15-2013  11:46:14         PAGE 16


LOC  OBJECT CODE     LINE SOURCE TEXT
  VALUE
 
               00810 
               00811 
gpasm-0.13.7 beta               objects/time.asm11-15-2013  11:46:14         PAGE 17


SYMBOL TABLE
  LABEL                             VALUE 

FSR0L                             00000FE9
FSR1L                             00000FE1
FSR2L                             00000FD9
PLUSW2                            00000FDB
POSTDEC1                          00000FE5
PREINC1                           00000FE4
PRODH                             00000FF4
PRODL                             00000FF3
STATUS                            00000FD8
WREG                              00000FE8
_00130_DS_                        0000006A
_00131_DS_                        00000070
_00133_DS_                        00000086
_00134_DS_                        0000008C
_00136_DS_                        000000A2
_00137_DS_                        000000A8
_00139_DS_                        00000166
_00144_DS_                        00000068
_00145_DS_                        00000084
_00146_DS_                        000000A0
__18F97J60                        00000001
__divsint                         00000000
__divslong                        00000000
__gptrget1                        00000000
__mullong                         00000000
__str_0                           0000007A
_get_hours                        00000000
_get_minutes                      00000000
_get_seconds                      00000000
_seconds_since_midnight           00000000
_set_time                         00000000
_sprintf                          00000000
_stdin                            00000000
_stdout                           00000000
_time2string                      00000000
_time2string_string_1_1           00000000
_to_double_digits                 00000000
_to_double_digits_buffer_1_1      00000000
r0x00                             00000000
r0x01                             00000001
r0x02                             00000002
r0x03                             00000003
r0x04                             00000004
r0x05                             00000005
r0x06                             00000006
r0x07                             00000007
r0x08                             00000008
r0x09                             00000009


Errors   :       0
Warnings :       0 reported,       0 suppressed
Messages :       0 reported,       0 suppressed

